     1 00000000                                 [FORMAT "WCOFF"]
     2 00000000                                 [INSTRSET "i486p"]
     3 00000000                                 [OPTIMIZE 1]
     4 00000000                                 [OPTION 1]
     5 00000000                                 [BITS 32]
     6 00000000                                 	EXTERN	_task_now
     7 00000000                                 	EXTERN	_memman_alloc
     8 00000000                                 	EXTERN	_memman_alloc_4k
     9 00000000                                 	EXTERN	_timer_alloc
    10 00000000                                 	EXTERN	_timer_init
    11 00000000                                 	EXTERN	_timer_settime
    12 00000000                                 	EXTERN	_file_decodefat
    13 00000000                                 	EXTERN	_get_ontime
    14 00000000                                 	EXTERN	_sprintf
    15 00000000                                 	EXTERN	_io_cli
    16 00000000                                 	EXTERN	_fifo32_status
    17 00000000                                 	EXTERN	_fifo32_get
    18 00000000                                 	EXTERN	_io_sti
    19 00000000                                 	EXTERN	_putstring8_ascii_sht
    20 00000000                                 	EXTERN	_boxfill8
    21 00000000                                 	EXTERN	_sheet_refresh
    22 00000000                                 	EXTERN	_strcpy
    23 00000000                                 	EXTERN	_task_sleep
    24 00000000                                 	EXTERN	_memman_total
    25 00000000                                 	EXTERN	_file_search
    26 00000000                                 	EXTERN	_file_loadfile
    27 00000000                                 	EXTERN	_memman_free_4k
    28 00000000                                 	EXTERN	_set_segmdesc
    29 00000000                                 	EXTERN	_start_app
    30 00000000                                 	EXTERN	_timer_cancelall
    31 00000000                                 	EXTERN	_sheet_free
    32 00000000                                 	EXTERN	_taskctl
    33 00000000                                 	EXTERN	_timer_cancel
    34 00000000                                 	EXTERN	_memman_free
    35 00000000                                 	EXTERN	_fifo32_put
    36 00000000                                 	EXTERN	_sheet_slide
    37 00000000                                 	EXTERN	_sheet_updown
    38 00000000                                 	EXTERN	_io_in8
    39 00000000                                 	EXTERN	_io_out8
    40 00000000                                 	EXTERN	_timer_free
    41 00000000                                 	EXTERN	_memman_init
    42 00000000                                 	EXTERN	_putstring8_ascii
    43 00000000                                 	EXTERN	_sheet_alloc
    44 00000000                                 	EXTERN	_sheet_setbuf
    45 00000000                                 	EXTERN	_make_window8
    46 00000000                                 	EXTERN	_task_alloc
    47 00000000                                 	EXTERN	_task_run
    48 00000000                                 	EXTERN	_fifo32_init
    49 00000000                                 	EXTERN	_make_textbox8
    50 00000000                                 [FILE "console.c"]
    51                                          [SECTION .data]
    52 00000000                                 LC0:
    53 00000000 70 6F 77 65 72 2D 6F 6E 20 74   	DB	"power-on time: %s.",0x00
       0000000A 69 6D 65 3A 20 25 73 2E 00 
    54 00000013                                 LC1:
    55 00000013 24 20 00                        	DB	"$ ",0x00
    56 00000016                                 LC2:
    57 00000016 20 00                           	DB	" ",0x00
    58                                          [SECTION .text]
    59 00000000                                 	GLOBAL	_console_task
    60 00000000                                 _console_task:
    61 00000000 55                              	PUSH	EBP
    62 00000001 89 E5                           	MOV	EBP,ESP
    63 00000003 57                              	PUSH	EDI
    64 00000004 56                              	PUSH	ESI
    65 00000005 31 FF                           	XOR	EDI,EDI
    66 00000007 53                              	PUSH	EBX
    67 00000008 81 EC 000001B4                  	SUB	ESP,436
    68 0000000E 8B 75 08                        	MOV	ESI,DWORD [8+EBP]
    69 00000011 E8 [00000000]                   	CALL	_task_now
    70 00000016 C7 85 FFFFFE4C 00000000         	MOV	DWORD [-436+EBP],0
    71 00000020 89 85 FFFFFE50                  	MOV	DWORD [-432+EBP],EAX
    72 00000026 85 F6                           	TEST	ESI,ESI
    73 00000028 74 3C                           	JE	L2
    74 0000002A 68 00002000                     	PUSH	8192
    75 0000002F 31 DB                           	XOR	EBX,EBX
    76 00000031 68 003C0000                     	PUSH	3932160
    77 00000036 E8 [00000000]                   	CALL	_memman_alloc
    78 0000003B 89 85 FFFFFE4C                  	MOV	DWORD [-436+EBP],EAX
    79 00000041 58                              	POP	EAX
    80 00000042 5A                              	POP	EDX
    81 00000043                                 L7:
    82 00000043 68 00000100                     	PUSH	256
    83 00000048 68 003C0000                     	PUSH	3932160
    84 0000004D E8 [00000000]                   	CALL	_memman_alloc
    85 00000052 8B 95 FFFFFE4C                  	MOV	EDX,DWORD [-436+EBP]
    86 00000058 89 04 9A                        	MOV	DWORD [EDX+EBX*4],EAX
    87 0000005B 43                              	INC	EBX
    88 0000005C 59                              	POP	ECX
    89 0000005D 81 FB 000007FF                  	CMP	EBX,2047
    90 00000063 58                              	POP	EAX
    91 00000064 7E DD                           	JLE	L7
    92 00000066                                 L2:
    93 00000066 68 00002D00                     	PUSH	11520
    94 0000006B 68 003C0000                     	PUSH	3932160
    95 00000070 C7 85 FFFFFE48 00000000         	MOV	DWORD [-440+EBP],0
    96 0000007A C7 85 FFFFFE44 00000000         	MOV	DWORD [-444+EBP],0
    97 00000084 E8 [00000000]                   	CALL	_memman_alloc_4k
    98 00000089 85 F6                           	TEST	ESI,ESI
    99 0000008B 8B 95 FFFFFE50                  	MOV	EDX,DWORD [-432+EBP]
   100 00000091 8B 4D 10                        	MOV	ECX,DWORD [16+EBP]
   101 00000094 89 85 FFFFFE40                  	MOV	DWORD [-448+EBP],EAX
   102 0000009A 89 B5 FFFFFEB4                  	MOV	DWORD [-332+EBP],ESI
   103 000000A0 8B 45 14                        	MOV	EAX,DWORD [20+EBP]
   104 000000A3 89 8D FFFFFEC8                  	MOV	DWORD [-312+EBP],ECX
   105 000000A9 89 85 FFFFFECC                  	MOV	DWORD [-308+EBP],EAX
   106 000000AF 8D 85 FFFFFEB4                  	LEA	EAX,DWORD [-332+EBP]
   107 000000B5 89 82 000000A4                  	MOV	DWORD [164+EDX],EAX
   108 000000BB 8D 85 FFFFFED4                  	LEA	EAX,DWORD [-300+EBP]
   109 000000C1 89 82 000000B8                  	MOV	DWORD [184+EDX],EAX
   110 000000C7 58                              	POP	EAX
   111 000000C8 C7 85 FFFFFEB8 00000008         	MOV	DWORD [-328+EBP],8
   112 000000D2 C7 85 FFFFFEBC 0000001C         	MOV	DWORD [-324+EBP],28
   113 000000DC C7 85 FFFFFEC0 FFFFFFFF         	MOV	DWORD [-320+EBP],-1
   114 000000E6 5A                              	POP	EDX
   115 000000E7 74 2D                           	JE	L8
   116 000000E9 E8 [00000000]                   	CALL	_timer_alloc
   117 000000EE 8B 95 FFFFFE50                  	MOV	EDX,DWORD [-432+EBP]
   118 000000F4 6A 01                           	PUSH	1
   119 000000F6 83 C2 10                        	ADD	EDX,16
   120 000000F9 52                              	PUSH	EDX
   121 000000FA 89 85 FFFFFED0                  	MOV	DWORD [-304+EBP],EAX
   122 00000100 50                              	PUSH	EAX
   123 00000101 E8 [00000000]                   	CALL	_timer_init
   124 00000106 6A 32                           	PUSH	50
   125 00000108 FF B5 FFFFFED0                  	PUSH	DWORD [-304+EBP]
   126 0000010E E8 [00000000]                   	CALL	_timer_settime
   127 00000113 83 C4 14                        	ADD	ESP,20
   128 00000116                                 L8:
   129 00000116 68 00100200                     	PUSH	1049088
   130 0000011B FF B5 FFFFFE40                  	PUSH	DWORD [-448+EBP]
   131 00000121 E8 [00000000]                   	CALL	_file_decodefat
   132 00000126 31 C0                           	XOR	EAX,EAX
   133 00000128 59                              	POP	ECX
   134 00000129 5B                              	POP	EBX
   135 0000012A BB 00000007                     	MOV	EBX,7
   136 0000012F                                 L13:
   137 0000012F C7 84 05 FFFFFE54 00000000      	MOV	DWORD [-428+EBP+EAX*1],0
   138 0000013A 83 C0 0C                        	ADD	EAX,12
   139 0000013D 4B                              	DEC	EBX
   140 0000013E 79 EF                           	JNS	L13
   141 00000140 8B 8D FFFFFE50                  	MOV	ECX,DWORD [-432+EBP]
   142 00000146 8D 85 FFFFFE54                  	LEA	EAX,DWORD [-428+EBP]
   143 0000014C 8D 5D D4                        	LEA	EBX,DWORD [-44+EBP]
   144 0000014F 89 81 000000B0                  	MOV	DWORD [176+ECX],EAX
   145 00000155 8B 85 FFFFFE40                  	MOV	EAX,DWORD [-448+EBP]
   146 0000015B 89 81 000000B4                  	MOV	DWORD [180+ECX],EAX
   147 00000161 E8 [00000000]                   	CALL	_get_ontime
   148 00000166 50                              	PUSH	EAX
   149 00000167 68 [00000000]                   	PUSH	LC0
   150 0000016C 53                              	PUSH	EBX
   151 0000016D E8 [00000000]                   	CALL	_sprintf
   152 00000172 6A FF                           	PUSH	-1
   153 00000174 53                              	PUSH	EBX
   154 00000175 8D 9D FFFFFEB4                  	LEA	EBX,DWORD [-332+EBP]
   155 0000017B 53                              	PUSH	EBX
   156 0000017C E8 0000071C                     	CALL	_cons_putstring
   157 00000181 53                              	PUSH	EBX
   158 00000182 E8 00000623                     	CALL	_cons_newline
   159 00000187 6A FF                           	PUSH	-1
   160 00000189 6A 06                           	PUSH	6
   161 0000018B 68 [00000013]                   	PUSH	LC1
   162 00000190 53                              	PUSH	EBX
   163 00000191 E8 00000707                     	CALL	_cons_putstring
   164 00000196 83 C4 2C                        	ADD	ESP,44
   165 00000199 C7 85 FFFFFEC4 00000000         	MOV	DWORD [-316+EBP],0
   166 000001A3                                 L14:
   167 000001A3 E8 [00000000]                   	CALL	_io_cli
   168 000001A8 8B B5 FFFFFE50                  	MOV	ESI,DWORD [-432+EBP]
   169 000001AE 83 C6 10                        	ADD	ESI,16
   170 000001B1 56                              	PUSH	ESI
   171 000001B2 E8 [00000000]                   	CALL	_fifo32_status
   172 000001B7 5A                              	POP	EDX
   173 000001B8 85 C0                           	TEST	EAX,EAX
   174 000001BA 0F 84 00000489                  	JE	L76
   175 000001C0 56                              	PUSH	ESI
   176 000001C1 E8 [00000000]                   	CALL	_fifo32_get
   177 000001C6 89 C3                           	MOV	EBX,EAX
   178 000001C8 E8 [00000000]                   	CALL	_io_sti
   179 000001CD 58                              	POP	EAX
   180 000001CE 83 FB 01                        	CMP	EBX,1
   181 000001D1 0F 8E 00000403                  	JLE	L77
   182 000001D7                                 L19:
   183 000001D7 83 FB 02                        	CMP	EBX,2
   184 000001DA 0F 84 000003EB                  	JE	L78
   185 000001E0 83 FB 03                        	CMP	EBX,3
   186 000001E3 0F 84 000003A0                  	JE	L79
   187 000001E9 8D 83 FFFFFF00                  	LEA	EAX,DWORD [-256+EBX]
   188 000001EF 3D 000000FF                     	CMP	EAX,255
   189 000001F4 0F 87 0000036C                  	JA	L30
   190 000001FA 89 C3                           	MOV	EBX,EAX
   191 000001FC 83 F8 08                        	CMP	EAX,8
   192 000001FF 0F 84 0000032E                  	JE	L80
   193 00000205 83 F8 0A                        	CMP	EAX,10
   194 00000208 0F 84 0000023D                  	JE	L81
   195 0000020E 3D 000000F0                     	CMP	EAX,240
   196 00000213 0F 84 000001C4                  	JE	L82
   197 00000219 3D 000000F1                     	CMP	EAX,241
   198 0000021E 0F 84 00000117                  	JE	L83
   199 00000224 8D 80 FFFFFF0E                  	LEA	EAX,DWORD [-242+EAX]
   200 0000022A 83 F8 01                        	CMP	EAX,1
   201 0000022D 0F 86 FFFFFF70                  	JBE	L14
   202 00000233 88 5D D4                        	MOV	BYTE [-44+EBP],BL
   203 00000236 81 FF 00000100                  	CMP	EDI,256
   204 0000023C C6 45 D5 00                     	MOV	BYTE [-43+EBP],0
   205 00000240 0F 8F FFFFFF5D                  	JG	L14
   206 00000246 8B 95 FFFFFEB4                  	MOV	EDX,DWORD [-332+EBP]
   207 0000024C 88 9C 3D FFFFFED4               	MOV	BYTE [-300+EBP+EDI*1],BL
   208 00000253 47                              	INC	EDI
   209 00000254 85 D2                           	TEST	EDX,EDX
   210 00000256 74 1D                           	JE	L60
   211 00000258 8D 45 D4                        	LEA	EAX,DWORD [-44+EBP]
   212 0000025B 50                              	PUSH	EAX
   213 0000025C 6A 00                           	PUSH	0
   214 0000025E 6A 07                           	PUSH	7
   215 00000260 FF B5 FFFFFEBC                  	PUSH	DWORD [-324+EBP]
   216 00000266 FF B5 FFFFFEB8                  	PUSH	DWORD [-328+EBP]
   217 0000026C 52                              	PUSH	EDX
   218 0000026D E8 [00000000]                   	CALL	_putstring8_ascii_sht
   219 00000272 83 C4 18                        	ADD	ESP,24
   220 00000275                                 L60:
   221 00000275 8B 95 FFFFFEB8                  	MOV	EDX,DWORD [-328+EBP]
   222 0000027B 8B 45 10                        	MOV	EAX,DWORD [16+EBP]
   223 0000027E 83 C2 08                        	ADD	EDX,8
   224 00000281 83 C0 08                        	ADD	EAX,8
   225 00000284 89 95 FFFFFEB8                  	MOV	DWORD [-328+EBP],EDX
   226 0000028A 39 C2                           	CMP	EDX,EAX
   227 0000028C 0F 84 00000091                  	JE	L84
   228 00000292                                 L61:
   229 00000292 8B 85 FFFFFECC                  	MOV	EAX,DWORD [-308+EBP]
   230 00000298 BA 00000010                     	MOV	EDX,16
   231 0000029D 89 D1                           	MOV	ECX,EDX
   232 0000029F 99                              	CDQ
   233 000002A0 F7 F9                           	IDIV	ECX
   234 000002A2 48                              	DEC	EAX
   235 000002A3 39 85 FFFFFEC4                  	CMP	DWORD [-316+EBP],EAX
   236 000002A9 7E 0D                           	JLE	L24
   237 000002AB 8D 85 FFFFFEB4                  	LEA	EAX,DWORD [-332+EBP]
   238 000002B1 50                              	PUSH	EAX
   239 000002B2 E8 00000480                     	CALL	_cons_omit_firstline
   240 000002B7 58                              	POP	EAX
   241 000002B8                                 L24:
   242 000002B8 8B 9D FFFFFEB4                  	MOV	EBX,DWORD [-332+EBP]
   243 000002BE 85 DB                           	TEST	EBX,EBX
   244 000002C0 0F 84 FFFFFEDD                  	JE	L14
   245 000002C6 83 BD FFFFFEC0 00               	CMP	DWORD [-320+EBP],0
   246 000002CD 78 2B                           	JS	L66
   247 000002CF 8B 8D FFFFFEBC                  	MOV	ECX,DWORD [-324+EBP]
   248 000002D5 8B 95 FFFFFEB8                  	MOV	EDX,DWORD [-328+EBP]
   249 000002DB 8D 41 0F                        	LEA	EAX,DWORD [15+ECX]
   250 000002DE 50                              	PUSH	EAX
   251 000002DF 8D 42 07                        	LEA	EAX,DWORD [7+EDX]
   252 000002E2 50                              	PUSH	EAX
   253 000002E3 51                              	PUSH	ECX
   254 000002E4 52                              	PUSH	EDX
   255 000002E5 0F B6 85 FFFFFEC0               	MOVZX	EAX,BYTE [-320+EBP]
   256 000002EC 50                              	PUSH	EAX
   257 000002ED FF 73 04                        	PUSH	DWORD [4+EBX]
   258 000002F0 FF 33                           	PUSH	DWORD [EBX]
   259 000002F2 E8 [00000000]                   	CALL	_boxfill8
   260 000002F7 83 C4 1C                        	ADD	ESP,28
   261 000002FA                                 L66:
   262 000002FA 8B 8D FFFFFEBC                  	MOV	ECX,DWORD [-324+EBP]
   263 00000300 8B 95 FFFFFEB8                  	MOV	EDX,DWORD [-328+EBP]
   264 00000306 8D 41 10                        	LEA	EAX,DWORD [16+ECX]
   265 00000309 50                              	PUSH	EAX
   266 0000030A 8D 42 08                        	LEA	EAX,DWORD [8+EDX]
   267 0000030D 50                              	PUSH	EAX
   268 0000030E 51                              	PUSH	ECX
   269 0000030F 52                              	PUSH	EDX
   270 00000310 FF B5 FFFFFEB4                  	PUSH	DWORD [-332+EBP]
   271 00000316 E8 [00000000]                   	CALL	_sheet_refresh
   272 0000031B 83 C4 14                        	ADD	ESP,20
   273 0000031E E9 FFFFFE80                     	JMP	L14
   274 00000323                                 L84:
   275 00000323 8D 85 FFFFFEB4                  	LEA	EAX,DWORD [-332+EBP]
   276 00000329 FF 85 FFFFFEC4                  	INC	DWORD [-316+EBP]
   277 0000032F 50                              	PUSH	EAX
   278 00000330 E8 00000475                     	CALL	_cons_newline
   279 00000335 5A                              	POP	EDX
   280 00000336 E9 FFFFFF57                     	JMP	L61
   281 0000033B                                 L83:
   282 0000033B 8B 85 FFFFFE48                  	MOV	EAX,DWORD [-440+EBP]
   283 00000341 FF 85 FFFFFE44                  	INC	DWORD [-444+EBP]
   284 00000347 03 85 FFFFFE44                  	ADD	EAX,DWORD [-444+EBP]
   285 0000034D 3B 85 FFFFFE48                  	CMP	EAX,DWORD [-440+EBP]
   286 00000353 7D 7D                           	JGE	L49
   287 00000355 85 FF                           	TEST	EDI,EDI
   288 00000357 7E 1C                           	JLE	L73
   289 00000359 89 FB                           	MOV	EBX,EDI
   290 0000035B                                 L54:
   291 0000035B 57                              	PUSH	EDI
   292 0000035C 8D 85 FFFFFED4                  	LEA	EAX,DWORD [-300+EBP]
   293 00000362 50                              	PUSH	EAX
   294 00000363 8D 85 FFFFFEB4                  	LEA	EAX,DWORD [-332+EBP]
   295 00000369 50                              	PUSH	EAX
   296 0000036A E8 00000610                     	CALL	_cons_backspace
   297 0000036F 83 C4 0C                        	ADD	ESP,12
   298 00000372 4B                              	DEC	EBX
   299 00000373 75 E6                           	JNE	L54
   300 00000375                                 L73:
   301 00000375 8B 9D FFFFFE48                  	MOV	EBX,DWORD [-440+EBP]
   302 0000037B 8B 85 FFFFFE4C                  	MOV	EAX,DWORD [-436+EBP]
   303 00000381 03 9D FFFFFE44                  	ADD	EBX,DWORD [-444+EBP]
   304 00000387 8D B5 FFFFFED4                  	LEA	ESI,DWORD [-300+EBP]
   305 0000038D FF 34 98                        	PUSH	DWORD [EAX+EBX*4]
   306 00000390 56                              	PUSH	ESI
   307 00000391 E8 [00000000]                   	CALL	_strcpy
   308 00000396 8B 95 FFFFFE4C                  	MOV	EDX,DWORD [-436+EBP]
   309 0000039C 8B 3C 9A                        	MOV	EDI,DWORD [EDX+EBX*4]
   310 0000039F                                 L74:
   311 0000039F FC                              	CLD
   312 000003A0 31 C0                           	XOR	EAX,EAX
   313 000003A2 83 C9 FF                        	OR	ECX,-1
   314 000003A5 F2                              	REPNE
   315 000003A6 AE                              	SCASB
   316 000003A7 F7 D1                           	NOT	ECX
   317 000003A9 8D 85 FFFFFEB4                  	LEA	EAX,DWORD [-332+EBP]
   318 000003AF 8D 79 FF                        	LEA	EDI,DWORD [-1+ECX]
   319 000003B2 57                              	PUSH	EDI
   320 000003B3 6A 00                           	PUSH	0
   321 000003B5 6A 00                           	PUSH	0
   322 000003B7 6A 07                           	PUSH	7
   323 000003B9 56                              	PUSH	ESI
   324 000003BA 50                              	PUSH	EAX
   325 000003BB C7 85 FFFFFEB8 00000018         	MOV	DWORD [-328+EBP],24
   326 000003C5 E8 000004D3                     	CALL	_cons_putstring
   327 000003CA 83 C4 20                        	ADD	ESP,32
   328 000003CD E9 FFFFFEE6                     	JMP	L24
   329 000003D2                                 L49:
   330 000003D2 FF 8D FFFFFE44                  	DEC	DWORD [-444+EBP]
   331 000003D8 E9 FFFFFEDB                     	JMP	L24
   332 000003DD                                 L82:
   333 000003DD 8B 85 FFFFFE48                  	MOV	EAX,DWORD [-440+EBP]
   334 000003E3 FF 8D FFFFFE44                  	DEC	DWORD [-444+EBP]
   335 000003E9 03 85 FFFFFE44                  	ADD	EAX,DWORD [-444+EBP]
   336 000003EF 78 4F                           	JS	L40
   337 000003F1 85 FF                           	TEST	EDI,EDI
   338 000003F3 7E 1C                           	JLE	L71
   339 000003F5 89 FB                           	MOV	EBX,EDI
   340 000003F7                                 L45:
   341 000003F7 57                              	PUSH	EDI
   342 000003F8 8D 85 FFFFFED4                  	LEA	EAX,DWORD [-300+EBP]
   343 000003FE 50                              	PUSH	EAX
   344 000003FF 8D 85 FFFFFEB4                  	LEA	EAX,DWORD [-332+EBP]
   345 00000405 50                              	PUSH	EAX
   346 00000406 E8 00000574                     	CALL	_cons_backspace
   347 0000040B 83 C4 0C                        	ADD	ESP,12
   348 0000040E 4B                              	DEC	EBX
   349 0000040F 75 E6                           	JNE	L45
   350 00000411                                 L71:
   351 00000411 8B 9D FFFFFE48                  	MOV	EBX,DWORD [-440+EBP]
   352 00000417 8B 95 FFFFFE4C                  	MOV	EDX,DWORD [-436+EBP]
   353 0000041D 03 9D FFFFFE44                  	ADD	EBX,DWORD [-444+EBP]
   354 00000423 8D B5 FFFFFED4                  	LEA	ESI,DWORD [-300+EBP]
   355 00000429 FF 34 9A                        	PUSH	DWORD [EDX+EBX*4]
   356 0000042C 56                              	PUSH	ESI
   357 0000042D E8 [00000000]                   	CALL	_strcpy
   358 00000432 8B 8D FFFFFE4C                  	MOV	ECX,DWORD [-436+EBP]
   359 00000438 8B 3C 99                        	MOV	EDI,DWORD [ECX+EBX*4]
   360 0000043B E9 FFFFFF5F                     	JMP	L74
   361 00000440                                 L40:
   362 00000440 FF 85 FFFFFE44                  	INC	DWORD [-444+EBP]
   363 00000446 E9 FFFFFE6D                     	JMP	L24
   364 0000044B                                 L81:
   365 0000044B 68 [00000016]                   	PUSH	LC2
   366 00000450 6A 00                           	PUSH	0
   367 00000452 6A 07                           	PUSH	7
   368 00000454 FF B5 FFFFFEBC                  	PUSH	DWORD [-324+EBP]
   369 0000045A FF B5 FFFFFEB8                  	PUSH	DWORD [-328+EBP]
   370 00000460 FF B5 FFFFFEB4                  	PUSH	DWORD [-332+EBP]
   371 00000466 C7 85 FFFFFEC4 00000000         	MOV	DWORD [-316+EBP],0
   372 00000470 E8 [00000000]                   	CALL	_putstring8_ascii_sht
   373 00000475 83 C4 18                        	ADD	ESP,24
   374 00000478 C6 84 3D FFFFFED4 00            	MOV	BYTE [-300+EBP+EDI*1],0
   375 00000480 81 BD FFFFFE48 000007FF         	CMP	DWORD [-440+EBP],2047
   376 0000048A 0F 84 FFFFFD13                  	JE	L14
   377 00000490 85 FF                           	TEST	EDI,EDI
   378 00000492 74 2D                           	JE	L36
   379 00000494 83 BD FFFFFEB4 00               	CMP	DWORD [-332+EBP],0
   380 0000049B 74 24                           	JE	L36
   381 0000049D 8B 95 FFFFFE48                  	MOV	EDX,DWORD [-440+EBP]
   382 000004A3 8B 8D FFFFFE4C                  	MOV	ECX,DWORD [-436+EBP]
   383 000004A9 8D 85 FFFFFED4                  	LEA	EAX,DWORD [-300+EBP]
   384 000004AF 50                              	PUSH	EAX
   385 000004B0 FF 34 91                        	PUSH	DWORD [ECX+EDX*4]
   386 000004B3 42                              	INC	EDX
   387 000004B4 89 95 FFFFFE48                  	MOV	DWORD [-440+EBP],EDX
   388 000004BA E8 [00000000]                   	CALL	_strcpy
   389 000004BF 59                              	POP	ECX
   390 000004C0 5B                              	POP	EBX
   391 000004C1                                 L36:
   392 000004C1 8D 9D FFFFFEB4                  	LEA	EBX,DWORD [-332+EBP]
   393 000004C7 53                              	PUSH	EBX
   394 000004C8 E8 000002DD                     	CALL	_cons_newline
   395 000004CD 8D 85 FFFFFED4                  	LEA	EAX,DWORD [-300+EBP]
   396 000004D3 FF B5 FFFFFE48                  	PUSH	DWORD [-440+EBP]
   397 000004D9 FF B5 FFFFFE4C                  	PUSH	DWORD [-436+EBP]
   398 000004DF FF 75 0C                        	PUSH	DWORD [12+EBP]
   399 000004E2 FF B5 FFFFFE40                  	PUSH	DWORD [-448+EBP]
   400 000004E8 53                              	PUSH	EBX
   401 000004E9 50                              	PUSH	EAX
   402 000004EA E8 0000062C                     	CALL	_cons_runcmd
   403 000004EF 83 C4 1C                        	ADD	ESP,28
   404 000004F2 83 BD FFFFFEB4 00               	CMP	DWORD [-332+EBP],0
   405 000004F9 75 15                           	JNE	L37
   406 000004FB FF B5 FFFFFE4C                  	PUSH	DWORD [-436+EBP]
   407 00000501 FF B5 FFFFFE40                  	PUSH	DWORD [-448+EBP]
   408 00000507 53                              	PUSH	EBX
   409 00000508 E8 00000F51                     	CALL	_cmd_exit
   410 0000050D 83 C4 0C                        	ADD	ESP,12
   411 00000510                                 L37:
   412 00000510 6A FF                           	PUSH	-1
   413 00000512 31 FF                           	XOR	EDI,EDI
   414 00000514 6A 06                           	PUSH	6
   415 00000516 68 [00000013]                   	PUSH	LC1
   416 0000051B 53                              	PUSH	EBX
   417 0000051C E8 0000037C                     	CALL	_cons_putstring
   418 00000521 83 C4 10                        	ADD	ESP,16
   419 00000524 C7 85 FFFFFE44 00000000         	MOV	DWORD [-444+EBP],0
   420 0000052E E9 FFFFFD85                     	JMP	L24
   421 00000533                                 L80:
   422 00000533 C7 85 FFFFFEC0 00000007         	MOV	DWORD [-320+EBP],7
   423 0000053D 85 FF                           	TEST	EDI,EDI
   424 0000053F 7E 09                           	JLE	L32
   425 00000541 C6 84 3D FFFFFED4 00            	MOV	BYTE [-300+EBP+EDI*1],0
   426 00000549 4F                              	DEC	EDI
   427 0000054A                                 L32:
   428 0000054A 57                              	PUSH	EDI
   429 0000054B 8D 85 FFFFFED4                  	LEA	EAX,DWORD [-300+EBP]
   430 00000551 50                              	PUSH	EAX
   431 00000552 8D 85 FFFFFEB4                  	LEA	EAX,DWORD [-332+EBP]
   432 00000558 50                              	PUSH	EAX
   433 00000559 E8 00000421                     	CALL	_cons_backspace
   434 0000055E                                 L75:
   435 0000055E 83 C4 0C                        	ADD	ESP,12
   436 00000561 E9 FFFFFD52                     	JMP	L24
   437 00000566                                 L30:
   438 00000566 83 FB 04                        	CMP	EBX,4
   439 00000569 0F 85 FFFFFD49                  	JNE	L24
   440 0000056F FF B5 FFFFFE4C                  	PUSH	DWORD [-436+EBP]
   441 00000575 FF B5 FFFFFE40                  	PUSH	DWORD [-448+EBP]
   442 0000057B 8D 85 FFFFFEB4                  	LEA	EAX,DWORD [-332+EBP]
   443 00000581 50                              	PUSH	EAX
   444 00000582 E8 00000ED7                     	CALL	_cmd_exit
   445 00000587 EB D5                           	JMP	L75
   446 00000589                                 L79:
   447 00000589 8B 9D FFFFFEB4                  	MOV	EBX,DWORD [-332+EBP]
   448 0000058F C7 85 FFFFFEC0 FFFFFFFF         	MOV	DWORD [-320+EBP],-1
   449 00000599 85 DB                           	TEST	EBX,EBX
   450 0000059B 0F 84 FFFFFD17                  	JE	L24
   451 000005A1 8B 8D FFFFFEBC                  	MOV	ECX,DWORD [-324+EBP]
   452 000005A7 8B 95 FFFFFEB8                  	MOV	EDX,DWORD [-328+EBP]
   453 000005AD 8D 41 0F                        	LEA	EAX,DWORD [15+ECX]
   454 000005B0 50                              	PUSH	EAX
   455 000005B1 8D 42 07                        	LEA	EAX,DWORD [7+EDX]
   456 000005B4 50                              	PUSH	EAX
   457 000005B5 51                              	PUSH	ECX
   458 000005B6 52                              	PUSH	EDX
   459 000005B7 6A 00                           	PUSH	0
   460 000005B9 FF 73 04                        	PUSH	DWORD [4+EBX]
   461 000005BC FF 33                           	PUSH	DWORD [EBX]
   462 000005BE E8 [00000000]                   	CALL	_boxfill8
   463 000005C3 83 C4 1C                        	ADD	ESP,28
   464 000005C6 E9 FFFFFCED                     	JMP	L24
   465 000005CB                                 L78:
   466 000005CB C7 85 FFFFFEC0 00000000         	MOV	DWORD [-320+EBP],0
   467 000005D5 E9 FFFFFCDE                     	JMP	L24
   468 000005DA                                 L77:
   469 000005DA 83 BD FFFFFEB4 00               	CMP	DWORD [-332+EBP],0
   470 000005E1 0F 84 FFFFFBF0                  	JE	L19
   471 000005E7 85 DB                           	TEST	EBX,EBX
   472 000005E9 74 38                           	JE	L20
   473 000005EB 6A 00                           	PUSH	0
   474 000005ED 56                              	PUSH	ESI
   475 000005EE FF B5 FFFFFED0                  	PUSH	DWORD [-304+EBP]
   476 000005F4 E8 [00000000]                   	CALL	_timer_init
   477 000005F9 83 C4 0C                        	ADD	ESP,12
   478 000005FC 83 BD FFFFFEC0 00               	CMP	DWORD [-320+EBP],0
   479 00000603 78 0A                           	JS	L22
   480 00000605 C7 85 FFFFFEC0 00000007         	MOV	DWORD [-320+EBP],7
   481 0000060F                                 L22:
   482 0000060F 6A 32                           	PUSH	50
   483 00000611 FF B5 FFFFFED0                  	PUSH	DWORD [-304+EBP]
   484 00000617 E8 [00000000]                   	CALL	_timer_settime
   485 0000061C 5E                              	POP	ESI
   486 0000061D 58                              	POP	EAX
   487 0000061E E9 FFFFFC95                     	JMP	L24
   488 00000623                                 L20:
   489 00000623 6A 01                           	PUSH	1
   490 00000625 56                              	PUSH	ESI
   491 00000626 FF B5 FFFFFED0                  	PUSH	DWORD [-304+EBP]
   492 0000062C E8 [00000000]                   	CALL	_timer_init
   493 00000631 83 C4 0C                        	ADD	ESP,12
   494 00000634 83 BD FFFFFEC0 00               	CMP	DWORD [-320+EBP],0
   495 0000063B 78 D2                           	JS	L22
   496 0000063D C7 85 FFFFFEC0 00000000         	MOV	DWORD [-320+EBP],0
   497 00000647 EB C6                           	JMP	L22
   498 00000649                                 L76:
   499 00000649 FF B5 FFFFFE50                  	PUSH	DWORD [-432+EBP]
   500 0000064F E8 [00000000]                   	CALL	_task_sleep
   501 00000654 E8 [00000000]                   	CALL	_io_sti
   502 00000659 58                              	POP	EAX
   503 0000065A E9 FFFFFB44                     	JMP	L14
   504 0000065F                                 	GLOBAL	_scroll_down
   505 0000065F                                 _scroll_down:
   506 0000065F 55                              	PUSH	EBP
   507 00000660 89 E5                           	MOV	EBP,ESP
   508 00000662 57                              	PUSH	EDI
   509 00000663 56                              	PUSH	ESI
   510 00000664 53                              	PUSH	EBX
   511 00000665 83 EC 18                        	SUB	ESP,24
   512 00000668 8B 45 08                        	MOV	EAX,DWORD [8+EBP]
   513 0000066B 8B 5D 10                        	MOV	EBX,DWORD [16+EBP]
   514 0000066E 8B 55 0C                        	MOV	EDX,DWORD [12+EBP]
   515 00000671 89 45 F0                        	MOV	DWORD [-16+EBP],EAX
   516 00000674 8B 45 14                        	MOV	EAX,DWORD [20+EBP]
   517 00000677 89 55 EC                        	MOV	DWORD [-20+EBP],EDX
   518 0000067A 89 45 E4                        	MOV	DWORD [-28+EBP],EAX
   519 0000067D 8B 55 18                        	MOV	EDX,DWORD [24+EBP]
   520 00000680 89 D8                           	MOV	EAX,EBX
   521 00000682 89 5D E8                        	MOV	DWORD [-24+EBP],EBX
   522 00000685 01 D0                           	ADD	EAX,EDX
   523 00000687 89 55 E0                        	MOV	DWORD [-32+EBP],EDX
   524 0000068A 89 DF                           	MOV	EDI,EBX
   525 0000068C 39 C3                           	CMP	EBX,EAX
   526 0000068E 7D 3F                           	JGE	L107
   527 00000690                                 L95:
   528 00000690 8B 75 EC                        	MOV	ESI,DWORD [-20+EBP]
   529 00000693 89 F3                           	MOV	EBX,ESI
   530 00000695 03 5D E4                        	ADD	EBX,DWORD [-28+EBP]
   531 00000698 89 5D DC                        	MOV	DWORD [-36+EBP],EBX
   532 0000069B 39 DE                           	CMP	ESI,EBX
   533 0000069D 7D 25                           	JGE	L109
   534 0000069F                                 L94:
   535 0000069F 8B 45 F0                        	MOV	EAX,DWORD [-16+EBP]
   536 000006A2 89 FA                           	MOV	EDX,EDI
   537 000006A4 8B 48 04                        	MOV	ECX,DWORD [4+EAX]
   538 000006A7 8B 18                           	MOV	EBX,DWORD [EAX]
   539 000006A9 8D 47 10                        	LEA	EAX,DWORD [16+EDI]
   540 000006AC 0F AF C1                        	IMUL	EAX,ECX
   541 000006AF 0F AF D1                        	IMUL	EDX,ECX
   542 000006B2 8D 04 30                        	LEA	EAX,DWORD [EAX+ESI*1]
   543 000006B5 8D 14 32                        	LEA	EDX,DWORD [EDX+ESI*1]
   544 000006B8 46                              	INC	ESI
   545 000006B9 8A 04 18                        	MOV	AL,BYTE [EAX+EBX*1]
   546 000006BC 88 04 1A                        	MOV	BYTE [EDX+EBX*1],AL
   547 000006BF 3B 75 DC                        	CMP	ESI,DWORD [-36+EBP]
   548 000006C2 7C DB                           	JL	L94
   549 000006C4                                 L109:
   550 000006C4 8B 45 E8                        	MOV	EAX,DWORD [-24+EBP]
   551 000006C7 47                              	INC	EDI
   552 000006C8 03 45 E0                        	ADD	EAX,DWORD [-32+EBP]
   553 000006CB 39 C7                           	CMP	EDI,EAX
   554 000006CD 7C C1                           	JL	L95
   555 000006CF                                 L107:
   556 000006CF 8B 55 E8                        	MOV	EDX,DWORD [-24+EBP]
   557 000006D2 8B 5D E0                        	MOV	EBX,DWORD [-32+EBP]
   558 000006D5 8D 7C 13 F0                     	LEA	EDI,DWORD [-16+EBX+EDX*1]
   559 000006D9                                 L105:
   560 000006D9 8B 75 EC                        	MOV	ESI,DWORD [-20+EBP]
   561 000006DC 89 F1                           	MOV	ECX,ESI
   562 000006DE 03 4D E4                        	ADD	ECX,DWORD [-28+EBP]
   563 000006E1 39 CE                           	CMP	ESI,ECX
   564 000006E3 7D 17                           	JGE	L113
   565 000006E5                                 L104:
   566 000006E5 8B 55 F0                        	MOV	EDX,DWORD [-16+EBP]
   567 000006E8 89 F8                           	MOV	EAX,EDI
   568 000006EA 0F AF 42 04                     	IMUL	EAX,DWORD [4+EDX]
   569 000006EE 8B 12                           	MOV	EDX,DWORD [EDX]
   570 000006F0 8D 04 30                        	LEA	EAX,DWORD [EAX+ESI*1]
   571 000006F3 46                              	INC	ESI
   572 000006F4 39 CE                           	CMP	ESI,ECX
   573 000006F6 C6 04 10 00                     	MOV	BYTE [EAX+EDX*1],0
   574 000006FA 7C E9                           	JL	L104
   575 000006FC                                 L113:
   576 000006FC 8B 45 E8                        	MOV	EAX,DWORD [-24+EBP]
   577 000006FF 47                              	INC	EDI
   578 00000700 03 45 E0                        	ADD	EAX,DWORD [-32+EBP]
   579 00000703 39 C7                           	CMP	EDI,EAX
   580 00000705 7C D2                           	JL	L105
   581 00000707 8B 45 E8                        	MOV	EAX,DWORD [-24+EBP]
   582 0000070A 8B 5D F0                        	MOV	EBX,DWORD [-16+EBP]
   583 0000070D 03 45 E0                        	ADD	EAX,DWORD [-32+EBP]
   584 00000710 8B 55 EC                        	MOV	EDX,DWORD [-20+EBP]
   585 00000713 89 55 0C                        	MOV	DWORD [12+EBP],EDX
   586 00000716 89 45 18                        	MOV	DWORD [24+EBP],EAX
   587 00000719 89 5D 08                        	MOV	DWORD [8+EBP],EBX
   588 0000071C 8B 45 EC                        	MOV	EAX,DWORD [-20+EBP]
   589 0000071F 03 45 E4                        	ADD	EAX,DWORD [-28+EBP]
   590 00000722 89 45 14                        	MOV	DWORD [20+EBP],EAX
   591 00000725 8B 45 E8                        	MOV	EAX,DWORD [-24+EBP]
   592 00000728 89 45 10                        	MOV	DWORD [16+EBP],EAX
   593 0000072B 83 C4 18                        	ADD	ESP,24
   594 0000072E 5B                              	POP	EBX
   595 0000072F 5E                              	POP	ESI
   596 00000730 5F                              	POP	EDI
   597 00000731 5D                              	POP	EBP
   598 00000732 E9 [00000000]                   	JMP	_sheet_refresh
   599                                          [SECTION .data]
   600 00000018                                 LC3:
   601 00000018 3E 2E 2E 2E 2E 20 00            	DB	">.... ",0x00
   602                                          [SECTION .text]
   603 00000737                                 	GLOBAL	_cons_omit_firstline
   604 00000737                                 _cons_omit_firstline:
   605 00000737 55                              	PUSH	EBP
   606 00000738 89 E5                           	MOV	EBP,ESP
   607 0000073A 57                              	PUSH	EDI
   608 0000073B 56                              	PUSH	ESI
   609 0000073C 53                              	PUSH	EBX
   610 0000073D 8B 7D 08                        	MOV	EDI,DWORD [8+EBP]
   611 00000740 68 [00000013]                   	PUSH	LC1
   612 00000745 6A 00                           	PUSH	0
   613 00000747 6A 06                           	PUSH	6
   614 00000749 6A 1C                           	PUSH	28
   615 0000074B 6A 08                           	PUSH	8
   616 0000074D FF 37                           	PUSH	DWORD [EDI]
   617 0000074F E8 [00000000]                   	CALL	_putstring8_ascii_sht
   618 00000754 68 [00000018]                   	PUSH	LC3
   619 00000759 6A 00                           	PUSH	0
   620 0000075B 6A 07                           	PUSH	7
   621 0000075D 6A 1C                           	PUSH	28
   622 0000075F 6A 18                           	PUSH	24
   623 00000761 FF 37                           	PUSH	DWORD [EDI]
   624 00000763 E8 [00000000]                   	CALL	_putstring8_ascii_sht
   625 00000768 83 C4 30                        	ADD	ESP,48
   626 0000076B 8B 57 14                        	MOV	EDX,DWORD [20+EDI]
   627 0000076E B9 00000008                     	MOV	ECX,8
   628 00000773 89 D0                           	MOV	EAX,EDX
   629 00000775 99                              	CDQ
   630 00000776 F7 F9                           	IDIV	ECX
   631 00000778 8D 40 F8                        	LEA	EAX,DWORD [-8+EAX]
   632 0000077B 85 C0                           	TEST	EAX,EAX
   633 0000077D 7E 23                           	JLE	L121
   634 0000077F BE 00000048                     	MOV	ESI,72
   635 00000784 89 C3                           	MOV	EBX,EAX
   636 00000786                                 L119:
   637 00000786 68 [00000016]                   	PUSH	LC2
   638 0000078B 6A 00                           	PUSH	0
   639 0000078D 6A 07                           	PUSH	7
   640 0000078F 6A 1C                           	PUSH	28
   641 00000791 56                              	PUSH	ESI
   642 00000792 83 C6 08                        	ADD	ESI,8
   643 00000795 FF 37                           	PUSH	DWORD [EDI]
   644 00000797 E8 [00000000]                   	CALL	_putstring8_ascii_sht
   645 0000079C 83 C4 18                        	ADD	ESP,24
   646 0000079F 4B                              	DEC	EBX
   647 000007A0 75 E4                           	JNE	L119
   648 000007A2                                 L121:
   649 000007A2 8D 65 F4                        	LEA	ESP,DWORD [-12+EBP]
   650 000007A5 5B                              	POP	EBX
   651 000007A6 5E                              	POP	ESI
   652 000007A7 5F                              	POP	EDI
   653 000007A8 5D                              	POP	EBP
   654 000007A9 C3                              	RET
   655 000007AA                                 	GLOBAL	_cons_newline
   656 000007AA                                 _cons_newline:
   657 000007AA 55                              	PUSH	EBP
   658 000007AB 89 E5                           	MOV	EBP,ESP
   659 000007AD 56                              	PUSH	ESI
   660 000007AE 53                              	PUSH	EBX
   661 000007AF 8B 5D 08                        	MOV	EBX,DWORD [8+EBP]
   662 000007B2 8B 33                           	MOV	ESI,DWORD [EBX]
   663 000007B4 85 F6                           	TEST	ESI,ESI
   664 000007B6 74 1A                           	JE	L122
   665 000007B8 8B 4B 18                        	MOV	ECX,DWORD [24+EBX]
   666 000007BB 8B 53 08                        	MOV	EDX,DWORD [8+EBX]
   667 000007BE 8D 41 0C                        	LEA	EAX,DWORD [12+ECX]
   668 000007C1 39 C2                           	CMP	EDX,EAX
   669 000007C3 7D 14                           	JGE	L124
   670 000007C5 8D 42 10                        	LEA	EAX,DWORD [16+EDX]
   671 000007C8 89 43 08                        	MOV	DWORD [8+EBX],EAX
   672 000007CB                                 L125:
   673 000007CB C7 43 04 00000008               	MOV	DWORD [4+EBX],8
   674 000007D2                                 L122:
   675 000007D2 8D 65 F8                        	LEA	ESP,DWORD [-8+EBP]
   676 000007D5 5B                              	POP	EBX
   677 000007D6 5E                              	POP	ESI
   678 000007D7 5D                              	POP	EBP
   679 000007D8 C3                              	RET
   680 000007D9                                 L124:
   681 000007D9 51                              	PUSH	ECX
   682 000007DA FF 73 14                        	PUSH	DWORD [20+EBX]
   683 000007DD 6A 1C                           	PUSH	28
   684 000007DF 6A 08                           	PUSH	8
   685 000007E1 56                              	PUSH	ESI
   686 000007E2 E8 FFFFFE78                     	CALL	_scroll_down
   687 000007E7 83 C4 14                        	ADD	ESP,20
   688 000007EA EB DF                           	JMP	L125
   689 000007EC                                 	GLOBAL	_cons_putchar
   690 000007EC                                 _cons_putchar:
   691 000007EC 55                              	PUSH	EBP
   692 000007ED 89 E5                           	MOV	EBP,ESP
   693 000007EF 57                              	PUSH	EDI
   694 000007F0 56                              	PUSH	ESI
   695 000007F1 53                              	PUSH	EBX
   696 000007F2 50                              	PUSH	EAX
   697 000007F3 8B 5D 08                        	MOV	EBX,DWORD [8+EBP]
   698 000007F6 8A 55 10                        	MOV	DL,BYTE [16+EBP]
   699 000007F9 8B 45 0C                        	MOV	EAX,DWORD [12+EBP]
   700 000007FC 8B 7D 14                        	MOV	EDI,DWORD [20+EBP]
   701 000007FF 8B 75 18                        	MOV	ESI,DWORD [24+EBP]
   702 00000802 88 55 F1                        	MOV	BYTE [-15+EBP],DL
   703 00000805 83 3B 00                        	CMP	DWORD [EBX],0
   704 00000808 74 42                           	JE	L126
   705 0000080A 88 45 F2                        	MOV	BYTE [-14+EBP],AL
   706 0000080D 3C 09                           	CMP	AL,9
   707 0000080F C6 45 F3 00                     	MOV	BYTE [-13+EBP],0
   708 00000813 74 48                           	JE	L129
   709 00000815 3C 0A                           	CMP	AL,10
   710 00000817 74 3B                           	JE	L141
   711 00000819 3C 0D                           	CMP	AL,13
   712 0000081B 74 2F                           	JE	L126
   713 0000081D 8D 45 F2                        	LEA	EAX,DWORD [-14+EBP]
   714 00000820 50                              	PUSH	EAX
   715 00000821 56                              	PUSH	ESI
   716 00000822 57                              	PUSH	EDI
   717 00000823 FF 73 08                        	PUSH	DWORD [8+EBX]
   718 00000826 FF 73 04                        	PUSH	DWORD [4+EBX]
   719 00000829 FF 33                           	PUSH	DWORD [EBX]
   720 0000082B E8 [00000000]                   	CALL	_putstring8_ascii_sht
   721 00000830 83 C4 18                        	ADD	ESP,24
   722 00000833 80 7D F1 00                     	CMP	BYTE [-15+EBP],0
   723 00000837 74 13                           	JE	L126
   724 00000839 8B 53 04                        	MOV	EDX,DWORD [4+EBX]
   725 0000083C 8B 43 14                        	MOV	EAX,DWORD [20+EBX]
   726 0000083F 83 C2 08                        	ADD	EDX,8
   727 00000842 83 C0 08                        	ADD	EAX,8
   728 00000845 89 53 04                        	MOV	DWORD [4+EBX],EDX
   729 00000848 39 C2                           	CMP	EDX,EAX
   730 0000084A 74 08                           	JE	L141
   731 0000084C                                 L126:
   732 0000084C 8D 65 F4                        	LEA	ESP,DWORD [-12+EBP]
   733 0000084F 5B                              	POP	EBX
   734 00000850 5E                              	POP	ESI
   735 00000851 5F                              	POP	EDI
   736 00000852 5D                              	POP	EBP
   737 00000853 C3                              	RET
   738 00000854                                 L141:
   739 00000854 53                              	PUSH	EBX
   740 00000855 E8 FFFFFF50                     	CALL	_cons_newline
   741 0000085A 59                              	POP	ECX
   742 0000085B EB EF                           	JMP	L126
   743 0000085D                                 L129:
   744 0000085D 68 [00000016]                   	PUSH	LC2
   745 00000862 56                              	PUSH	ESI
   746 00000863 57                              	PUSH	EDI
   747 00000864 FF 73 08                        	PUSH	DWORD [8+EBX]
   748 00000867 FF 73 04                        	PUSH	DWORD [4+EBX]
   749 0000086A FF 33                           	PUSH	DWORD [EBX]
   750 0000086C E8 [00000000]                   	CALL	_putstring8_ascii_sht
   751 00000871 83 C4 18                        	ADD	ESP,24
   752 00000874 8B 53 04                        	MOV	EDX,DWORD [4+EBX]
   753 00000877 8B 43 14                        	MOV	EAX,DWORD [20+EBX]
   754 0000087A 83 C2 08                        	ADD	EDX,8
   755 0000087D 83 C0 08                        	ADD	EAX,8
   756 00000880 89 53 04                        	MOV	DWORD [4+EBX],EDX
   757 00000883 39 C2                           	CMP	EDX,EAX
   758 00000885 74 0D                           	JE	L142
   759 00000887                                 L132:
   760 00000887 8B 43 04                        	MOV	EAX,DWORD [4+EBX]
   761 0000088A 83 E8 08                        	SUB	EAX,8
   762 0000088D 83 E0 1F                        	AND	EAX,31
   763 00000890 75 CB                           	JNE	L129
   764 00000892 EB B8                           	JMP	L126
   765 00000894                                 L142:
   766 00000894 53                              	PUSH	EBX
   767 00000895 E8 FFFFFF10                     	CALL	_cons_newline
   768 0000089A 58                              	POP	EAX
   769 0000089B EB EA                           	JMP	L132
   770 0000089D                                 	GLOBAL	_cons_putstring
   771 0000089D                                 _cons_putstring:
   772 0000089D 55                              	PUSH	EBP
   773 0000089E 83 C9 FF                        	OR	ECX,-1
   774 000008A1 89 E5                           	MOV	EBP,ESP
   775 000008A3 31 D2                           	XOR	EDX,EDX
   776 000008A5 57                              	PUSH	EDI
   777 000008A6 56                              	PUSH	ESI
   778 000008A7 31 F6                           	XOR	ESI,ESI
   779 000008A9 53                              	PUSH	EBX
   780 000008AA 50                              	PUSH	EAX
   781 000008AB 31 C0                           	XOR	EAX,EAX
   782 000008AD FC                              	CLD
   783 000008AE 8B 7D 0C                        	MOV	EDI,DWORD [12+EBP]
   784 000008B1 C7 45 F0 00000007               	MOV	DWORD [-16+EBP],7
   785 000008B8 F2                              	REPNE
   786 000008B9 AE                              	SCASB
   787 000008BA F7 D1                           	NOT	ECX
   788 000008BC 8B 45 10                        	MOV	EAX,DWORD [16+EBP]
   789 000008BF 8D 79 FF                        	LEA	EDI,DWORD [-1+ECX]
   790 000008C2 83 F8 FF                        	CMP	EAX,-1
   791 000008C5 74 21                           	JE	L146
   792 000008C7 89 45 F0                        	MOV	DWORD [-16+EBP],EAX
   793 000008CA 8B 45 14                        	MOV	EAX,DWORD [20+EBP]
   794 000008CD 83 F8 FF                        	CMP	EAX,-1
   795 000008D0 74 16                           	JE	L146
   796 000008D2 89 C6                           	MOV	ESI,EAX
   797 000008D4 8B 45 18                        	MOV	EAX,DWORD [24+EBP]
   798 000008D7 83 F8 FF                        	CMP	EAX,-1
   799 000008DA 74 0C                           	JE	L146
   800 000008DC 89 C2                           	MOV	EDX,EAX
   801 000008DE 8B 45 1C                        	MOV	EAX,DWORD [28+EBP]
   802 000008E1 83 F8 FF                        	CMP	EAX,-1
   803 000008E4 74 02                           	JE	L146
   804 000008E6 89 C7                           	MOV	EDI,EAX
   805 000008E8                                 L146:
   806 000008E8 89 D3                           	MOV	EBX,EDX
   807 000008EA 39 FA                           	CMP	EDX,EDI
   808 000008EC 72 08                           	JB	L157
   809 000008EE                                 L159:
   810 000008EE 8D 65 F4                        	LEA	ESP,DWORD [-12+EBP]
   811 000008F1 5B                              	POP	EBX
   812 000008F2 5E                              	POP	ESI
   813 000008F3 5F                              	POP	EDI
   814 000008F4 5D                              	POP	EBP
   815 000008F5 C3                              	RET
   816 000008F6                                 L157:
   817 000008F6 56                              	PUSH	ESI
   818 000008F7 8B 55 0C                        	MOV	EDX,DWORD [12+EBP]
   819 000008FA FF 75 F0                        	PUSH	DWORD [-16+EBP]
   820 000008FD 6A 01                           	PUSH	1
   821 000008FF 0F BE 04 13                     	MOVSX	EAX,BYTE [EBX+EDX*1]
   822 00000903 50                              	PUSH	EAX
   823 00000904 43                              	INC	EBX
   824 00000905 FF 75 08                        	PUSH	DWORD [8+EBP]
   825 00000908 E8 FFFFFEDF                     	CALL	_cons_putchar
   826 0000090D 83 C4 14                        	ADD	ESP,20
   827 00000910 39 FB                           	CMP	EBX,EDI
   828 00000912 72 E2                           	JB	L157
   829 00000914 EB D8                           	JMP	L159
   830 00000916                                 	GLOBAL	_cons_putstr0
   831 00000916                                 _cons_putstr0:
   832 00000916 55                              	PUSH	EBP
   833 00000917 89 E5                           	MOV	EBP,ESP
   834 00000919 56                              	PUSH	ESI
   835 0000091A 53                              	PUSH	EBX
   836 0000091B 8B 5D 0C                        	MOV	EBX,DWORD [12+EBP]
   837 0000091E 8B 75 08                        	MOV	ESI,DWORD [8+EBP]
   838 00000921 80 3B 00                        	CMP	BYTE [EBX],0
   839 00000924 75 07                           	JNE	L165
   840 00000926                                 L167:
   841 00000926 8D 65 F8                        	LEA	ESP,DWORD [-8+EBP]
   842 00000929 5B                              	POP	EBX
   843 0000092A 5E                              	POP	ESI
   844 0000092B 5D                              	POP	EBP
   845 0000092C C3                              	RET
   846 0000092D                                 L165:
   847 0000092D 6A 00                           	PUSH	0
   848 0000092F 6A 07                           	PUSH	7
   849 00000931 6A 01                           	PUSH	1
   850 00000933 0F BE 03                        	MOVSX	EAX,BYTE [EBX]
   851 00000936 50                              	PUSH	EAX
   852 00000937 43                              	INC	EBX
   853 00000938 56                              	PUSH	ESI
   854 00000939 E8 FFFFFEAE                     	CALL	_cons_putchar
   855 0000093E 83 C4 14                        	ADD	ESP,20
   856 00000941 80 3B 00                        	CMP	BYTE [EBX],0
   857 00000944 75 E7                           	JNE	L165
   858 00000946 EB DE                           	JMP	L167
   859 00000948                                 	GLOBAL	_cons_putstr1
   860 00000948                                 _cons_putstr1:
   861 00000948 55                              	PUSH	EBP
   862 00000949 89 E5                           	MOV	EBP,ESP
   863 0000094B 57                              	PUSH	EDI
   864 0000094C 56                              	PUSH	ESI
   865 0000094D 53                              	PUSH	EBX
   866 0000094E 8B 75 10                        	MOV	ESI,DWORD [16+EBP]
   867 00000951 31 DB                           	XOR	EBX,EBX
   868 00000953 8B 7D 0C                        	MOV	EDI,DWORD [12+EBP]
   869 00000956 39 F3                           	CMP	EBX,ESI
   870 00000958 7C 08                           	JL	L173
   871 0000095A                                 L175:
   872 0000095A 8D 65 F4                        	LEA	ESP,DWORD [-12+EBP]
   873 0000095D 5B                              	POP	EBX
   874 0000095E 5E                              	POP	ESI
   875 0000095F 5F                              	POP	EDI
   876 00000960 5D                              	POP	EBP
   877 00000961 C3                              	RET
   878 00000962                                 L173:
   879 00000962 6A 00                           	PUSH	0
   880 00000964 6A 07                           	PUSH	7
   881 00000966 6A 01                           	PUSH	1
   882 00000968 0F BE 04 3B                     	MOVSX	EAX,BYTE [EBX+EDI*1]
   883 0000096C 50                              	PUSH	EAX
   884 0000096D 43                              	INC	EBX
   885 0000096E FF 75 08                        	PUSH	DWORD [8+EBP]
   886 00000971 E8 FFFFFE76                     	CALL	_cons_putchar
   887 00000976 83 C4 14                        	ADD	ESP,20
   888 00000979 39 F3                           	CMP	EBX,ESI
   889 0000097B 7C E5                           	JL	L173
   890 0000097D EB DB                           	JMP	L175
   891 0000097F                                 	GLOBAL	_cons_backspace
   892 0000097F                                 _cons_backspace:
   893 0000097F 55                              	PUSH	EBP
   894 00000980 89 E5                           	MOV	EBP,ESP
   895 00000982 57                              	PUSH	EDI
   896 00000983 56                              	PUSH	ESI
   897 00000984 53                              	PUSH	EBX
   898 00000985 50                              	PUSH	EAX
   899 00000986 8B 5D 08                        	MOV	EBX,DWORD [8+EBP]
   900 00000989 8B 33                           	MOV	ESI,DWORD [EBX]
   901 0000098B 85 F6                           	TEST	ESI,ESI
   902 0000098D 74 2E                           	JE	L176
   903 0000098F 8B 53 14                        	MOV	EDX,DWORD [20+EBX]
   904 00000992 B9 00000008                     	MOV	ECX,8
   905 00000997 89 D0                           	MOV	EAX,EDX
   906 00000999 99                              	CDQ
   907 0000099A F7 F9                           	IDIV	ECX
   908 0000099C 8B 53 18                        	MOV	EDX,DWORD [24+EBX]
   909 0000099F 89 45 F0                        	MOV	DWORD [-16+EBP],EAX
   910 000009A2 89 D0                           	MOV	EAX,EDX
   911 000009A4 B9 00000010                     	MOV	ECX,16
   912 000009A9 99                              	CDQ
   913 000009AA F7 F9                           	IDIV	ECX
   914 000009AC 89 C7                           	MOV	EDI,EAX
   915 000009AE 8B 43 10                        	MOV	EAX,DWORD [16+EBX]
   916 000009B1 85 C0                           	TEST	EAX,EAX
   917 000009B3 75 2C                           	JNE	L178
   918 000009B5 8B 43 04                        	MOV	EAX,DWORD [4+EBX]
   919 000009B8 83 F8 18                        	CMP	EAX,24
   920 000009BB 7F 08                           	JG	L194
   921 000009BD                                 L176:
   922 000009BD 8D 65 F4                        	LEA	ESP,DWORD [-12+EBP]
   923 000009C0 5B                              	POP	EBX
   924 000009C1 5E                              	POP	ESI
   925 000009C2 5F                              	POP	EDI
   926 000009C3 5D                              	POP	EBP
   927 000009C4 C3                              	RET
   928 000009C5                                 L194:
   929 000009C5 68 [00000016]                   	PUSH	LC2
   930 000009CA 6A 00                           	PUSH	0
   931 000009CC 6A 07                           	PUSH	7
   932 000009CE FF 73 08                        	PUSH	DWORD [8+EBX]
   933 000009D1 50                              	PUSH	EAX
   934 000009D2 56                              	PUSH	ESI
   935 000009D3 E8 [00000000]                   	CALL	_putstring8_ascii_sht
   936 000009D8 83 6B 04 08                     	SUB	DWORD [4+EBX],8
   937 000009DC                                 L191:
   938 000009DC 83 C4 18                        	ADD	ESP,24
   939 000009DF EB DC                           	JMP	L176
   940 000009E1                                 L178:
   941 000009E1 39 F8                           	CMP	EAX,EDI
   942 000009E3 7E 7A                           	JLE	L181
   943 000009E5 8B 43 04                        	MOV	EAX,DWORD [4+EBX]
   944 000009E8 83 F8 08                        	CMP	EAX,8
   945 000009EB 7F D8                           	JG	L194
   946 000009ED 53                              	PUSH	EBX
   947 000009EE E8 FFFFFD44                     	CALL	_cons_omit_firstline
   948 000009F3 68 [00000016]                   	PUSH	LC2
   949 000009F8 6A 00                           	PUSH	0
   950 000009FA 6A 07                           	PUSH	7
   951 000009FC FF 73 08                        	PUSH	DWORD [8+EBX]
   952 000009FF FF 73 04                        	PUSH	DWORD [4+EBX]
   953 00000A02 56                              	PUSH	ESI
   954 00000A03 E8 [00000000]                   	CALL	_putstring8_ascii_sht
   955 00000A08 8B 55 F0                        	MOV	EDX,DWORD [-16+EBP]
   956 00000A0B 8B 43 10                        	MOV	EAX,DWORD [16+EBX]
   957 00000A0E 29 F8                           	SUB	EAX,EDI
   958 00000A10 0F AF 45 F0                     	IMUL	EAX,DWORD [-16+EBP]
   959 00000A14 C7 43 04 00000008               	MOV	DWORD [4+EBX],8
   960 00000A1B C7 43 08 0000002C               	MOV	DWORD [8+EBX],44
   961 00000A22 C7 43 0C FFFFFFFF               	MOV	DWORD [12+EBX],-1
   962 00000A29 8D 44 10 FE                     	LEA	EAX,DWORD [-2+EAX+EDX*1]
   963 00000A2D FF 75 10                        	PUSH	DWORD [16+EBP]
   964 00000A30 50                              	PUSH	EAX
   965 00000A31 6A 00                           	PUSH	0
   966 00000A33 6A 07                           	PUSH	7
   967 00000A35 FF 75 0C                        	PUSH	DWORD [12+EBP]
   968 00000A38 53                              	PUSH	EBX
   969 00000A39 E8 FFFFFE5F                     	CALL	_cons_putstring
   970 00000A3E 83 C4 34                        	ADD	ESP,52
   971 00000A41 8B 43 14                        	MOV	EAX,DWORD [20+EBX]
   972 00000A44 FF 4B 10                        	DEC	DWORD [16+EBX]
   973 00000A47 89 43 04                        	MOV	DWORD [4+EBX],EAX
   974 00000A4A 8B 43 18                        	MOV	EAX,DWORD [24+EBX]
   975 00000A4D 83 C0 0C                        	ADD	EAX,12
   976 00000A50 89 43 08                        	MOV	DWORD [8+EBX],EAX
   977 00000A53 C7 43 0C 00000000               	MOV	DWORD [12+EBX],0
   978 00000A5A E9 FFFFFF5E                     	JMP	L176
   979 00000A5F                                 L181:
   980 00000A5F 39 F8                           	CMP	EAX,EDI
   981 00000A61 74 31                           	JE	L196
   982 00000A63 8B 43 04                        	MOV	EAX,DWORD [4+EBX]
   983 00000A66 83 F8 08                        	CMP	EAX,8
   984 00000A69 0F 8F FFFFFF56                  	JG	L194
   985 00000A6F 68 [00000016]                   	PUSH	LC2
   986 00000A74 6A 00                           	PUSH	0
   987 00000A76 6A 07                           	PUSH	7
   988 00000A78 FF 73 08                        	PUSH	DWORD [8+EBX]
   989 00000A7B 50                              	PUSH	EAX
   990 00000A7C 56                              	PUSH	ESI
   991 00000A7D E8 [00000000]                   	CALL	_putstring8_ascii_sht
   992 00000A82 FF 4B 10                        	DEC	DWORD [16+EBX]
   993 00000A85 83 6B 08 10                     	SUB	DWORD [8+EBX],16
   994 00000A89 8B 43 14                        	MOV	EAX,DWORD [20+EBX]
   995 00000A8C 89 43 04                        	MOV	DWORD [4+EBX],EAX
   996 00000A8F E9 FFFFFF48                     	JMP	L191
   997 00000A94                                 L196:
   998 00000A94 8B 43 04                        	MOV	EAX,DWORD [4+EBX]
   999 00000A97 83 F8 08                        	CMP	EAX,8
  1000 00000A9A 0F 8F FFFFFF25                  	JG	L194
  1001 00000AA0 68 [00000013]                   	PUSH	LC1
  1002 00000AA5 6A 00                           	PUSH	0
  1003 00000AA7 6A 06                           	PUSH	6
  1004 00000AA9 6A 1C                           	PUSH	28
  1005 00000AAB 6A 08                           	PUSH	8
  1006 00000AAD 56                              	PUSH	ESI
  1007 00000AAE E8 [00000000]                   	CALL	_putstring8_ascii_sht
  1008 00000AB3 68 [00000016]                   	PUSH	LC2
  1009 00000AB8 6A 00                           	PUSH	0
  1010 00000ABA 6A 07                           	PUSH	7
  1011 00000ABC FF 73 08                        	PUSH	DWORD [8+EBX]
  1012 00000ABF FF 73 04                        	PUSH	DWORD [4+EBX]
  1013 00000AC2 56                              	PUSH	ESI
  1014 00000AC3 E8 [00000000]                   	CALL	_putstring8_ascii_sht
  1015 00000AC8 83 C4 30                        	ADD	ESP,48
  1016 00000ACB C7 43 04 00000018               	MOV	DWORD [4+EBX],24
  1017 00000AD2 C7 43 08 0000001C               	MOV	DWORD [8+EBX],28
  1018 00000AD9 C7 43 0C FFFFFFFF               	MOV	DWORD [12+EBX],-1
  1019 00000AE0 FF 75 10                        	PUSH	DWORD [16+EBP]
  1020 00000AE3 6A 00                           	PUSH	0
  1021 00000AE5 6A 00                           	PUSH	0
  1022 00000AE7 6A 07                           	PUSH	7
  1023 00000AE9 FF 75 0C                        	PUSH	DWORD [12+EBP]
  1024 00000AEC 53                              	PUSH	EBX
  1025 00000AED E8 FFFFFDAB                     	CALL	_cons_putstring
  1026 00000AF2 8B 53 10                        	MOV	EDX,DWORD [16+EBX]
  1027 00000AF5 8B 43 14                        	MOV	EAX,DWORD [20+EBX]
  1028 00000AF8 29 D7                           	SUB	EDI,EDX
  1029 00000AFA C1 E7 04                        	SAL	EDI,4
  1030 00000AFD 89 43 04                        	MOV	DWORD [4+EBX],EAX
  1031 00000B00 8B 43 18                        	MOV	EAX,DWORD [24+EBX]
  1032 00000B03 4A                              	DEC	EDX
  1033 00000B04 29 F8                           	SUB	EAX,EDI
  1034 00000B06 89 53 10                        	MOV	DWORD [16+EBX],EDX
  1035 00000B09 83 C0 0C                        	ADD	EAX,12
  1036 00000B0C 89 43 08                        	MOV	DWORD [8+EBX],EAX
  1037 00000B0F C7 43 0C 00000000               	MOV	DWORD [12+EBX],0
  1038 00000B16 E9 FFFFFEC1                     	JMP	L191
  1039                                          [SECTION .data]
  1040 0000001F                                 LC4:
  1041 0000001F 6D 65 6D 00                     	DB	"mem",0x00
  1042 00000023                                 LC5:
  1043 00000023 63 6C 65 61 72 00               	DB	"clear",0x00
  1044 00000029                                 LC6:
  1045 00000029 6C 73 00                        	DB	"ls",0x00
  1046 0000002C                                 LC7:
  1047 0000002C 66 61 74 00                     	DB	"fat",0x00
  1048 00000030                                 LC8:
  1049 00000030 74 69 6D 65 00                  	DB	"time",0x00
  1050 00000035                                 LC9:
  1051 00000035 65 63 68 6F 00                  	DB	"echo",0x00
  1052 0000003A                                 LC10:
  1053 0000003A 74 6F 70 00                     	DB	"top",0x00
  1054 0000003E                                 LC11:
  1055 0000003E 68 69 73 74 6F 72 79 00         	DB	"history",0x00
  1056 00000046                                 LC12:
  1057 00000046 65 78 69 74 00                  	DB	"exit",0x00
  1058 0000004B                                 LC13:
  1059 0000004B 73 74 61 72 74 00               	DB	"start",0x00
  1060 00000051                                 LC14:
  1061 00000051 6E 63 73 74 00                  	DB	"ncst",0x00
  1062 00000056                                 LC15:
  1063 00000056 5B 63 6F 6D 6D 61 6E 64 20 6E   	DB	"[command not found]: ",0x00
       00000060 6F 74 20 66 6F 75 6E 64 5D 3A 
       0000006A 20 00 
  1064                                          [SECTION .text]
  1065 00000B1B                                 	GLOBAL	_cons_runcmd
  1066 00000B1B                                 _cons_runcmd:
  1067 00000B1B 55                              	PUSH	EBP
  1068 00000B1C 89 E5                           	MOV	EBP,ESP
  1069 00000B1E 57                              	PUSH	EDI
  1070 00000B1F 56                              	PUSH	ESI
  1071 00000B20 BF [0000001F]                   	MOV	EDI,LC4
  1072 00000B25 53                              	PUSH	EBX
  1073 00000B26 83 EC 14                        	SUB	ESP,20
  1074 00000B29 8B 45 0C                        	MOV	EAX,DWORD [12+EBP]
  1075 00000B2C 8B 55 10                        	MOV	EDX,DWORD [16+EBP]
  1076 00000B2F 8B 75 14                        	MOV	ESI,DWORD [20+EBP]
  1077 00000B32 89 45 E0                        	MOV	DWORD [-32+EBP],EAX
  1078 00000B35 89 55 F0                        	MOV	DWORD [-16+EBP],EDX
  1079 00000B38 8B 45 18                        	MOV	EAX,DWORD [24+EBP]
  1080 00000B3B 8B 55 1C                        	MOV	EDX,DWORD [28+EBP]
  1081 00000B3E 89 75 EC                        	MOV	DWORD [-20+EBP],ESI
  1082 00000B41 89 55 E4                        	MOV	DWORD [-28+EBP],EDX
  1083 00000B44 89 45 E8                        	MOV	DWORD [-24+EBP],EAX
  1084 00000B47 FF 75 08                        	PUSH	DWORD [8+EBP]
  1085 00000B4A E8 000015BE                     	CALL	_trim_cmdline_space
  1086 00000B4F B9 00000004                     	MOV	ECX,4
  1087 00000B54 8B 75 E0                        	MOV	ESI,DWORD [-32+EBP]
  1088 00000B57 89 C3                           	MOV	EBX,EAX
  1089 00000B59 FC                              	CLD
  1090 00000B5A 8B 06                           	MOV	EAX,DWORD [ESI]
  1091 00000B5C 89 DE                           	MOV	ESI,EBX
  1092 00000B5E 8B 40 24                        	MOV	EAX,DWORD [36+EAX]
  1093 00000B61 89 98 000000B8                  	MOV	DWORD [184+EAX],EBX
  1094 00000B67 F3                              	REPE
  1095 00000B68 A6                              	CMPSB
  1096 00000B69 0F 97 C2                        	SETA	DL
  1097 00000B6C 0F 92 C0                        	SETB	AL
  1098 00000B6F 5E                              	POP	ESI
  1099 00000B70 38 C2                           	CMP	DL,AL
  1100 00000B72 0F 84 000001FD                  	JE	L234
  1101 00000B78 FC                              	CLD
  1102 00000B79 BF [00000023]                   	MOV	EDI,LC5
  1103 00000B7E B9 00000006                     	MOV	ECX,6
  1104 00000B83 89 DE                           	MOV	ESI,EBX
  1105 00000B85 F3                              	REPE
  1106 00000B86 A6                              	CMPSB
  1107 00000B87 0F 84 000001D9                  	JE	L235
  1108 00000B8D FC                              	CLD
  1109 00000B8E BF [00000029]                   	MOV	EDI,LC6
  1110 00000B93 B9 00000003                     	MOV	ECX,3
  1111 00000B98 89 DE                           	MOV	ESI,EBX
  1112 00000B9A F3                              	REPE
  1113 00000B9B A6                              	CMPSB
  1114 00000B9C 0F 84 000001BA                  	JE	L236
  1115 00000BA2 FC                              	CLD
  1116 00000BA3 BF [0000002C]                   	MOV	EDI,LC7
  1117 00000BA8 B9 00000004                     	MOV	ECX,4
  1118 00000BAD 89 DE                           	MOV	ESI,EBX
  1119 00000BAF F3                              	REPE
  1120 00000BB0 A6                              	CMPSB
  1121 00000BB1 0F 84 00000193                  	JE	L237
  1122 00000BB7 FC                              	CLD
  1123 00000BB8 BF [00000030]                   	MOV	EDI,LC8
  1124 00000BBD B9 00000005                     	MOV	ECX,5
  1125 00000BC2 89 DE                           	MOV	ESI,EBX
  1126 00000BC4 F3                              	REPE
  1127 00000BC5 A6                              	CMPSB
  1128 00000BC6 0F 84 00000174                  	JE	L238
  1129 00000BCC FC                              	CLD
  1130 00000BCD BF [00000035]                   	MOV	EDI,LC9
  1131 00000BD2 B9 00000004                     	MOV	ECX,4
  1132 00000BD7 89 DE                           	MOV	ESI,EBX
  1133 00000BD9 F3                              	REPE
  1134 00000BDA A6                              	CMPSB
  1135 00000BDB 0F 84 00000146                  	JE	L239
  1136 00000BE1 FC                              	CLD
  1137 00000BE2 BF [0000003A]                   	MOV	EDI,LC10
  1138 00000BE7 B9 00000004                     	MOV	ECX,4
  1139 00000BEC 89 DE                           	MOV	ESI,EBX
  1140 00000BEE F3                              	REPE
  1141 00000BEF A6                              	CMPSB
  1142 00000BF0 0F 84 00000126                  	JE	L240
  1143 00000BF6 FC                              	CLD
  1144 00000BF7 BF [0000003E]                   	MOV	EDI,LC11
  1145 00000BFC B9 00000008                     	MOV	ECX,8
  1146 00000C01 89 DE                           	MOV	ESI,EBX
  1147 00000C03 F3                              	REPE
  1148 00000C04 A6                              	CMPSB
  1149 00000C05 0F 84 000000FE                  	JE	L241
  1150 00000C0B FC                              	CLD
  1151 00000C0C BF [00000046]                   	MOV	EDI,LC12
  1152 00000C11 B9 00000005                     	MOV	ECX,5
  1153 00000C16 89 DE                           	MOV	ESI,EBX
  1154 00000C18 F3                              	REPE
  1155 00000C19 A6                              	CMPSB
  1156 00000C1A 0F 84 000000CB                  	JE	L242
  1157 00000C20 FC                              	CLD
  1158 00000C21 BF [0000004B]                   	MOV	EDI,LC13
  1159 00000C26 B9 00000005                     	MOV	ECX,5
  1160 00000C2B 89 DE                           	MOV	ESI,EBX
  1161 00000C2D F3                              	REPE
  1162 00000C2E A6                              	CMPSB
  1163 00000C2F 0F 84 0000009D                  	JE	L243
  1164 00000C35 FC                              	CLD
  1165 00000C36 BF [00000051]                   	MOV	EDI,LC14
  1166 00000C3B B9 00000004                     	MOV	ECX,4
  1167 00000C40 89 DE                           	MOV	ESI,EBX
  1168 00000C42 F3                              	REPE
  1169 00000C43 A6                              	CMPSB
  1170 00000C44 74 6A                           	JE	L244
  1171 00000C46 80 3B 00                        	CMP	BYTE [EBX],0
  1172 00000C49 75 08                           	JNE	L245
  1173 00000C4B 8D 65 F4                        	LEA	ESP,DWORD [-12+EBP]
  1174 00000C4E 5B                              	POP	EBX
  1175 00000C4F 5E                              	POP	ESI
  1176 00000C50 5F                              	POP	EDI
  1177 00000C51 5D                              	POP	EBP
  1178 00000C52 C3                              	RET
  1179 00000C53                                 L245:
  1180 00000C53 53                              	PUSH	EBX
  1181 00000C54 FF 75 F0                        	PUSH	DWORD [-16+EBP]
  1182 00000C57 FF 75 E0                        	PUSH	DWORD [-32+EBP]
  1183 00000C5A E8 0000038E                     	CALL	_cmd_app
  1184 00000C5F 83 C4 0C                        	ADD	ESP,12
  1185 00000C62 85 C0                           	TEST	EAX,EAX
  1186 00000C64 74 12                           	JE	L246
  1187 00000C66                                 L221:
  1188 00000C66 8B 75 E0                        	MOV	ESI,DWORD [-32+EBP]
  1189 00000C69 89 75 08                        	MOV	DWORD [8+EBP],ESI
  1190 00000C6C                                 L222:
  1191 00000C6C 8D 65 F4                        	LEA	ESP,DWORD [-12+EBP]
  1192 00000C6F 5B                              	POP	EBX
  1193 00000C70 5E                              	POP	ESI
  1194 00000C71 5F                              	POP	EDI
  1195 00000C72 5D                              	POP	EBP
  1196 00000C73 E9 FFFFFB32                     	JMP	_cons_newline
  1197 00000C78                                 L246:
  1198 00000C78 8B 55 E0                        	MOV	EDX,DWORD [-32+EBP]
  1199 00000C7B C7 42 04 00000008               	MOV	DWORD [4+EDX],8
  1200 00000C82 6A FF                           	PUSH	-1
  1201 00000C84 6A 09                           	PUSH	9
  1202 00000C86 6A 07                           	PUSH	7
  1203 00000C88 68 [00000056]                   	PUSH	LC15
  1204 00000C8D 52                              	PUSH	EDX
  1205 00000C8E E8 FFFFFC0A                     	CALL	_cons_putstring
  1206 00000C93 6A FF                           	PUSH	-1
  1207 00000C95 6A 09                           	PUSH	9
  1208 00000C97 6A 07                           	PUSH	7
  1209 00000C99 53                              	PUSH	EBX
  1210 00000C9A FF 75 E0                        	PUSH	DWORD [-32+EBP]
  1211 00000C9D E8 FFFFFBFB                     	CALL	_cons_putstring
  1212 00000CA2 83 C4 28                        	ADD	ESP,40
  1213 00000CA5 FF 75 E0                        	PUSH	DWORD [-32+EBP]
  1214 00000CA8 E8 FFFFFAFD                     	CALL	_cons_newline
  1215 00000CAD 58                              	POP	EAX
  1216 00000CAE EB B6                           	JMP	L221
  1217 00000CB0                                 L244:
  1218 00000CB0 68 [00000051]                   	PUSH	LC14
  1219 00000CB5 53                              	PUSH	EBX
  1220 00000CB6 E8 000014BB                     	CALL	_remove_cmdline_middle_space
  1221 00000CBB FF 75 EC                        	PUSH	DWORD [-20+EBP]
  1222 00000CBE 50                              	PUSH	EAX
  1223 00000CBF FF 75 E0                        	PUSH	DWORD [-32+EBP]
  1224 00000CC2 E8 0000094D                     	CALL	_cmd_ncst
  1225 00000CC7                                 L233:
  1226 00000CC7 83 C4 14                        	ADD	ESP,20
  1227 00000CCA                                 L230:
  1228 00000CCA 8B 45 E0                        	MOV	EAX,DWORD [-32+EBP]
  1229 00000CCD 89 45 08                        	MOV	DWORD [8+EBP],EAX
  1230 00000CD0 EB 9A                           	JMP	L222
  1231 00000CD2                                 L243:
  1232 00000CD2 68 [0000004B]                   	PUSH	LC13
  1233 00000CD7 53                              	PUSH	EBX
  1234 00000CD8 E8 00001499                     	CALL	_remove_cmdline_middle_space
  1235 00000CDD FF 75 EC                        	PUSH	DWORD [-20+EBP]
  1236 00000CE0 50                              	PUSH	EAX
  1237 00000CE1 FF 75 E0                        	PUSH	DWORD [-32+EBP]
  1238 00000CE4 E8 00000848                     	CALL	_cmd_start
  1239 00000CE9 EB DC                           	JMP	L233
  1240 00000CEB                                 L242:
  1241 00000CEB 8B 75 E0                        	MOV	ESI,DWORD [-32+EBP]
  1242 00000CEE 8B 45 E8                        	MOV	EAX,DWORD [-24+EBP]
  1243 00000CF1 8B 55 F0                        	MOV	EDX,DWORD [-16+EBP]
  1244 00000CF4 89 45 10                        	MOV	DWORD [16+EBP],EAX
  1245 00000CF7 89 55 0C                        	MOV	DWORD [12+EBP],EDX
  1246 00000CFA 89 75 08                        	MOV	DWORD [8+EBP],ESI
  1247 00000CFD 8D 65 F4                        	LEA	ESP,DWORD [-12+EBP]
  1248 00000D00 5B                              	POP	EBX
  1249 00000D01 5E                              	POP	ESI
  1250 00000D02 5F                              	POP	EDI
  1251 00000D03 5D                              	POP	EBP
  1252 00000D04 E9 00000755                     	JMP	_cmd_exit
  1253 00000D09                                 L241:
  1254 00000D09 FF 75 E4                        	PUSH	DWORD [-28+EBP]
  1255 00000D0C FF 75 E8                        	PUSH	DWORD [-24+EBP]
  1256 00000D0F FF 75 E0                        	PUSH	DWORD [-32+EBP]
  1257 00000D12 E8 000006EB                     	CALL	_cmd_history
  1258 00000D17 83 C4 0C                        	ADD	ESP,12
  1259 00000D1A EB AE                           	JMP	L230
  1260 00000D1C                                 L240:
  1261 00000D1C FF 75 E0                        	PUSH	DWORD [-32+EBP]
  1262 00000D1F E8 0000066E                     	CALL	_cmd_top
  1263 00000D24                                 L231:
  1264 00000D24 58                              	POP	EAX
  1265 00000D25 EB A3                           	JMP	L230
  1266 00000D27                                 L239:
  1267 00000D27 68 [00000035]                   	PUSH	LC9
  1268 00000D2C 53                              	PUSH	EBX
  1269 00000D2D E8 00001444                     	CALL	_remove_cmdline_middle_space
  1270 00000D32 50                              	PUSH	EAX
  1271 00000D33 FF 75 E0                        	PUSH	DWORD [-32+EBP]
  1272 00000D36 E8 00000522                     	CALL	_cmd_echo
  1273 00000D3B 83 C4 10                        	ADD	ESP,16
  1274 00000D3E EB 8A                           	JMP	L230
  1275 00000D40                                 L238:
  1276 00000D40 FF 75 E0                        	PUSH	DWORD [-32+EBP]
  1277 00000D43 E8 0000026F                     	CALL	_cmd_time
  1278 00000D48 EB DA                           	JMP	L231
  1279 00000D4A                                 L237:
  1280 00000D4A FF 75 F0                        	PUSH	DWORD [-16+EBP]
  1281 00000D4D FF 75 E0                        	PUSH	DWORD [-32+EBP]
  1282 00000D50 E8 000001C4                     	CALL	_cmd_fat
  1283 00000D55                                 L232:
  1284 00000D55 5A                              	POP	EDX
  1285 00000D56 59                              	POP	ECX
  1286 00000D57 E9 FFFFFF6E                     	JMP	L230
  1287 00000D5C                                 L236:
  1288 00000D5C FF 75 E0                        	PUSH	DWORD [-32+EBP]
  1289 00000D5F E8 000000F6                     	CALL	_cmd_ls
  1290 00000D64 EB BE                           	JMP	L231
  1291 00000D66                                 L235:
  1292 00000D66 8B 45 E0                        	MOV	EAX,DWORD [-32+EBP]
  1293 00000D69 89 45 08                        	MOV	DWORD [8+EBP],EAX
  1294 00000D6C 8D 65 F4                        	LEA	ESP,DWORD [-12+EBP]
  1295 00000D6F 5B                              	POP	EBX
  1296 00000D70 5E                              	POP	ESI
  1297 00000D71 5F                              	POP	EDI
  1298 00000D72 5D                              	POP	EBP
  1299 00000D73 EB 70                           	JMP	_cmd_clear
  1300 00000D75                                 L234:
  1301 00000D75 FF 75 EC                        	PUSH	DWORD [-20+EBP]
  1302 00000D78 FF 75 E0                        	PUSH	DWORD [-32+EBP]
  1303 00000D7B E8 00000002                     	CALL	_cmd_mem
  1304 00000D80 EB D3                           	JMP	L232
  1305                                          [SECTION .data]
  1306 0000006C                                 LC16:
  1307 0000006C 74 6F 74 61 6C 20 20 20 25 64   	DB	"total   %dMB",0x00
       00000076 4D 42 00 
  1308 00000079                                 LC17:
  1309 00000079 66 72 65 65 20 25 64 4B 42 00   	DB	"free %dKB",0x00
  1310                                          [SECTION .text]
  1311 00000D82                                 	GLOBAL	_cmd_mem
  1312 00000D82                                 _cmd_mem:
  1313 00000D82 55                              	PUSH	EBP
  1314 00000D83 89 E5                           	MOV	EBP,ESP
  1315 00000D85 56                              	PUSH	ESI
  1316 00000D86 53                              	PUSH	EBX
  1317 00000D87 83 EC 20                        	SUB	ESP,32
  1318 00000D8A 8D 5D D8                        	LEA	EBX,DWORD [-40+EBP]
  1319 00000D8D 8B 45 0C                        	MOV	EAX,DWORD [12+EBP]
  1320 00000D90 8B 75 08                        	MOV	ESI,DWORD [8+EBP]
  1321 00000D93 C1 E8 14                        	SHR	EAX,20
  1322 00000D96 50                              	PUSH	EAX
  1323 00000D97 68 [0000006C]                   	PUSH	LC16
  1324 00000D9C 53                              	PUSH	EBX
  1325 00000D9D E8 [00000000]                   	CALL	_sprintf
  1326 00000DA2 6A FF                           	PUSH	-1
  1327 00000DA4 53                              	PUSH	EBX
  1328 00000DA5 56                              	PUSH	ESI
  1329 00000DA6 E8 FFFFFAF2                     	CALL	_cons_putstring
  1330 00000DAB 56                              	PUSH	ESI
  1331 00000DAC E8 FFFFF9F9                     	CALL	_cons_newline
  1332 00000DB1 68 003C0000                     	PUSH	3932160
  1333 00000DB6 E8 [00000000]                   	CALL	_memman_total
  1334 00000DBB C1 E8 0A                        	SHR	EAX,10
  1335 00000DBE 89 04 24                        	MOV	DWORD [ESP],EAX
  1336 00000DC1 68 [00000079]                   	PUSH	LC17
  1337 00000DC6 53                              	PUSH	EBX
  1338 00000DC7 E8 [00000000]                   	CALL	_sprintf
  1339 00000DCC 83 C4 28                        	ADD	ESP,40
  1340 00000DCF 6A FF                           	PUSH	-1
  1341 00000DD1 53                              	PUSH	EBX
  1342 00000DD2 56                              	PUSH	ESI
  1343 00000DD3 E8 FFFFFAC5                     	CALL	_cons_putstring
  1344 00000DD8 56                              	PUSH	ESI
  1345 00000DD9 E8 FFFFF9CC                     	CALL	_cons_newline
  1346 00000DDE 8D 65 F8                        	LEA	ESP,DWORD [-8+EBP]
  1347 00000DE1 5B                              	POP	EBX
  1348 00000DE2 5E                              	POP	ESI
  1349 00000DE3 5D                              	POP	EBP
  1350 00000DE4 C3                              	RET
  1351 00000DE5                                 	GLOBAL	_cmd_clear
  1352 00000DE5                                 _cmd_clear:
  1353 00000DE5 55                              	PUSH	EBP
  1354 00000DE6 89 E5                           	MOV	EBP,ESP
  1355 00000DE8 57                              	PUSH	EDI
  1356 00000DE9 56                              	PUSH	ESI
  1357 00000DEA BE 0000001C                     	MOV	ESI,28
  1358 00000DEF 53                              	PUSH	EBX
  1359 00000DF0 8B 5D 08                        	MOV	EBX,DWORD [8+EBP]
  1360 00000DF3 8B 43 18                        	MOV	EAX,DWORD [24+EBX]
  1361 00000DF6 8B 3B                           	MOV	EDI,DWORD [EBX]
  1362 00000DF8 83 C0 1C                        	ADD	EAX,28
  1363 00000DFB 39 C6                           	CMP	ESI,EAX
  1364 00000DFD 7D 34                           	JGE	L260
  1365 00000DFF                                 L258:
  1366 00000DFF 8B 43 14                        	MOV	EAX,DWORD [20+EBX]
  1367 00000E02 B9 00000008                     	MOV	ECX,8
  1368 00000E07 83 C0 08                        	ADD	EAX,8
  1369 00000E0A 39 C1                           	CMP	ECX,EAX
  1370 00000E0C 7D 1A                           	JGE	L262
  1371 00000E0E                                 L257:
  1372 00000E0E 89 F0                           	MOV	EAX,ESI
  1373 00000E10 8B 17                           	MOV	EDX,DWORD [EDI]
  1374 00000E12 0F AF 47 04                     	IMUL	EAX,DWORD [4+EDI]
  1375 00000E16 8D 04 08                        	LEA	EAX,DWORD [EAX+ECX*1]
  1376 00000E19 41                              	INC	ECX
  1377 00000E1A C6 04 10 00                     	MOV	BYTE [EAX+EDX*1],0
  1378 00000E1E 8B 43 14                        	MOV	EAX,DWORD [20+EBX]
  1379 00000E21 83 C0 08                        	ADD	EAX,8
  1380 00000E24 39 C1                           	CMP	ECX,EAX
  1381 00000E26 7C E6                           	JL	L257
  1382 00000E28                                 L262:
  1383 00000E28 8B 43 18                        	MOV	EAX,DWORD [24+EBX]
  1384 00000E2B 46                              	INC	ESI
  1385 00000E2C 83 C0 1C                        	ADD	EAX,28
  1386 00000E2F 39 C6                           	CMP	ESI,EAX
  1387 00000E31 7C CC                           	JL	L258
  1388 00000E33                                 L260:
  1389 00000E33 8B 43 18                        	MOV	EAX,DWORD [24+EBX]
  1390 00000E36 83 C0 1C                        	ADD	EAX,28
  1391 00000E39 50                              	PUSH	EAX
  1392 00000E3A 8B 43 14                        	MOV	EAX,DWORD [20+EBX]
  1393 00000E3D 83 C0 08                        	ADD	EAX,8
  1394 00000E40 50                              	PUSH	EAX
  1395 00000E41 6A 1C                           	PUSH	28
  1396 00000E43 6A 08                           	PUSH	8
  1397 00000E45 57                              	PUSH	EDI
  1398 00000E46 E8 [00000000]                   	CALL	_sheet_refresh
  1399 00000E4B C7 43 08 0000001C               	MOV	DWORD [8+EBX],28
  1400 00000E52 8D 65 F4                        	LEA	ESP,DWORD [-12+EBP]
  1401 00000E55 5B                              	POP	EBX
  1402 00000E56 5E                              	POP	ESI
  1403 00000E57 5F                              	POP	EDI
  1404 00000E58 5D                              	POP	EBP
  1405 00000E59 C3                              	RET
  1406                                          [SECTION .data]
  1407 00000083                                 LC19:
  1408 00000083 66 69 6C 65 6E 61 6D 65 2E 65   	DB	"filename.ext    %7d",0x00
       0000008D 78 74 20 20 20 20 25 37 64 00 
  1409 00000097                                 LC18:
  1410 00000097 74 6F 74 61 6C 3A 20 25 64 00   	DB	"total: %d",0x00
  1411                                          [SECTION .text]
  1412 00000E5A                                 	GLOBAL	_cmd_ls
  1413 00000E5A                                 _cmd_ls:
  1414 00000E5A 55                              	PUSH	EBP
  1415 00000E5B 89 E5                           	MOV	EBP,ESP
  1416 00000E5D 57                              	PUSH	EDI
  1417 00000E5E 56                              	PUSH	ESI
  1418 00000E5F 31 F6                           	XOR	ESI,ESI
  1419 00000E61 53                              	PUSH	EBX
  1420 00000E62 31 DB                           	XOR	EBX,EBX
  1421 00000E64 83 EC 20                        	SUB	ESP,32
  1422 00000E67 8B 7D 08                        	MOV	EDI,DWORD [8+EBP]
  1423 00000E6A                                 L276:
  1424 00000E6A 8A 83 00102600                  	MOV	AL,BYTE [1058304+EBX]
  1425 00000E70 84 C0                           	TEST	AL,AL
  1426 00000E72 74 7F                           	JE	L280
  1427 00000E74 3C E5                           	CMP	AL,-27
  1428 00000E76 74 09                           	JE	L266
  1429 00000E78 F6 83 0010260B 18               	TEST	BYTE [1058315+EBX],24
  1430 00000E7F 74 14                           	JE	L281
  1431 00000E81                                 L266:
  1432 00000E81 46                              	INC	ESI
  1433 00000E82 83 C3 20                        	ADD	EBX,32
  1434 00000E85 81 FE 000000DF                  	CMP	ESI,223
  1435 00000E8B 7E DD                           	JLE	L276
  1436 00000E8D                                 L263:
  1437 00000E8D 8D 65 F4                        	LEA	ESP,DWORD [-12+EBP]
  1438 00000E90 5B                              	POP	EBX
  1439 00000E91 5E                              	POP	ESI
  1440 00000E92 5F                              	POP	EDI
  1441 00000E93 5D                              	POP	EBP
  1442 00000E94 C3                              	RET
  1443 00000E95                                 L281:
  1444 00000E95 FF B3 0010261C                  	PUSH	DWORD [1058332+EBX]
  1445 00000E9B 68 [00000083]                   	PUSH	LC19
  1446 00000EA0 8D 45 D4                        	LEA	EAX,DWORD [-44+EBP]
  1447 00000EA3 50                              	PUSH	EAX
  1448 00000EA4 E8 [00000000]                   	CALL	_sprintf
  1449 00000EA9 8D 93 00102600                  	LEA	EDX,DWORD [1058304+EBX]
  1450 00000EAF 31 C9                           	XOR	ECX,ECX
  1451 00000EB1 83 C4 0C                        	ADD	ESP,12
  1452 00000EB4                                 L275:
  1453 00000EB4 8A 02                           	MOV	AL,BYTE [EDX]
  1454 00000EB6 42                              	INC	EDX
  1455 00000EB7 88 44 0D D4                     	MOV	BYTE [-44+EBP+ECX*1],AL
  1456 00000EBB 41                              	INC	ECX
  1457 00000EBC 83 F9 07                        	CMP	ECX,7
  1458 00000EBF 7E F3                           	JLE	L275
  1459 00000EC1 8A 83 00102608                  	MOV	AL,BYTE [1058312+EBX]
  1460 00000EC7 88 45 DD                        	MOV	BYTE [-35+EBP],AL
  1461 00000ECA 8A 83 00102609                  	MOV	AL,BYTE [1058313+EBX]
  1462 00000ED0 88 45 DE                        	MOV	BYTE [-34+EBP],AL
  1463 00000ED3 8A 83 0010260A                  	MOV	AL,BYTE [1058314+EBX]
  1464 00000ED9 6A FF                           	PUSH	-1
  1465 00000EDB 88 45 DF                        	MOV	BYTE [-33+EBP],AL
  1466 00000EDE 8D 45 D4                        	LEA	EAX,DWORD [-44+EBP]
  1467 00000EE1 50                              	PUSH	EAX
  1468 00000EE2 57                              	PUSH	EDI
  1469 00000EE3 E8 FFFFF9B5                     	CALL	_cons_putstring
  1470 00000EE8 57                              	PUSH	EDI
  1471 00000EE9 E8 FFFFF8BC                     	CALL	_cons_newline
  1472 00000EEE 83 C4 10                        	ADD	ESP,16
  1473 00000EF1 EB 8E                           	JMP	L266
  1474 00000EF3                                 L280:
  1475 00000EF3 56                              	PUSH	ESI
  1476 00000EF4 8D 5D D4                        	LEA	EBX,DWORD [-44+EBP]
  1477 00000EF7 68 [00000097]                   	PUSH	LC18
  1478 00000EFC 53                              	PUSH	EBX
  1479 00000EFD E8 [00000000]                   	CALL	_sprintf
  1480 00000F02 6A FF                           	PUSH	-1
  1481 00000F04 53                              	PUSH	EBX
  1482 00000F05 57                              	PUSH	EDI
  1483 00000F06 E8 FFFFF992                     	CALL	_cons_putstring
  1484 00000F0B 57                              	PUSH	EDI
  1485 00000F0C E8 FFFFF899                     	CALL	_cons_newline
  1486 00000F11 83 C4 1C                        	ADD	ESP,28
  1487 00000F14 E9 FFFFFF74                     	JMP	L263
  1488                                          [SECTION .data]
  1489 000000A1                                 LC20:
  1490 000000A1 5B 46 41 54 20 69 6E 66 6F 6D   	DB	"[FAT infomation]: ",0x0A,0x00
       000000AB 61 74 69 6F 6E 5D 3A 20 0A 00 
  1491 000000B5                                 LC21:
  1492 000000B5 25 30 33 78 00                  	DB	"%03x",0x00
  1493 000000BA                                 LC22:
  1494 000000BA 0A 00                           	DB	0x0A,0x00
  1495                                          [SECTION .text]
  1496 00000F19                                 	GLOBAL	_cmd_fat
  1497 00000F19                                 _cmd_fat:
  1498 00000F19 55                              	PUSH	EBP
  1499 00000F1A 89 E5                           	MOV	EBP,ESP
  1500 00000F1C 57                              	PUSH	EDI
  1501 00000F1D 56                              	PUSH	ESI
  1502 00000F1E 31 F6                           	XOR	ESI,ESI
  1503 00000F20 53                              	PUSH	EBX
  1504 00000F21 83 EC 10                        	SUB	ESP,16
  1505 00000F24 8B 7D 08                        	MOV	EDI,DWORD [8+EBP]
  1506 00000F27 6A FF                           	PUSH	-1
  1507 00000F29 68 [000000A1]                   	PUSH	LC20
  1508 00000F2E 57                              	PUSH	EDI
  1509 00000F2F E8 FFFFF969                     	CALL	_cons_putstring
  1510 00000F34 83 C4 0C                        	ADD	ESP,12
  1511 00000F37                                 L292:
  1512 00000F37 8B 55 0C                        	MOV	EDX,DWORD [12+EBP]
  1513 00000F3A 8B 04 B2                        	MOV	EAX,DWORD [EDX+ESI*4]
  1514 00000F3D 85 C0                           	TEST	EAX,EAX
  1515 00000F3F 74 53                           	JE	L284
  1516 00000F41 50                              	PUSH	EAX
  1517 00000F42 8D 5D E4                        	LEA	EBX,DWORD [-28+EBP]
  1518 00000F45 68 [000000B5]                   	PUSH	LC21
  1519 00000F4A 53                              	PUSH	EBX
  1520 00000F4B E8 [00000000]                   	CALL	_sprintf
  1521 00000F50 8B 45 0C                        	MOV	EAX,DWORD [12+EBP]
  1522 00000F53 83 C4 0C                        	ADD	ESP,12
  1523 00000F56 81 3C B0 00000FFF               	CMP	DWORD [EAX+ESI*4],4095
  1524 00000F5D 74 50                           	JE	L296
  1525 00000F5F 6A FF                           	PUSH	-1
  1526 00000F61 6A 00                           	PUSH	0
  1527 00000F63 6A 07                           	PUSH	7
  1528 00000F65                                 L294:
  1529 00000F65 53                              	PUSH	EBX
  1530 00000F66 57                              	PUSH	EDI
  1531 00000F67 E8 FFFFF931                     	CALL	_cons_putstring
  1532 00000F6C 8D 46 01                        	LEA	EAX,DWORD [1+ESI]
  1533 00000F6F 83 C4 14                        	ADD	ESP,20
  1534 00000F72 83 E0 07                        	AND	EAX,7
  1535 00000F75 75 2B                           	JNE	L290
  1536 00000F77 6A FF                           	PUSH	-1
  1537 00000F79 6A 00                           	PUSH	0
  1538 00000F7B 6A 07                           	PUSH	7
  1539 00000F7D 68 [000000BA]                   	PUSH	LC22
  1540 00000F82                                 L295:
  1541 00000F82 57                              	PUSH	EDI
  1542 00000F83 46                              	INC	ESI
  1543 00000F84 E8 FFFFF914                     	CALL	_cons_putstring
  1544 00000F89 83 C4 14                        	ADD	ESP,20
  1545 00000F8C 81 FE 00000B3F                  	CMP	ESI,2879
  1546 00000F92 7E A3                           	JLE	L292
  1547 00000F94                                 L284:
  1548 00000F94 57                              	PUSH	EDI
  1549 00000F95 E8 FFFFF810                     	CALL	_cons_newline
  1550 00000F9A 8D 65 F4                        	LEA	ESP,DWORD [-12+EBP]
  1551 00000F9D 5B                              	POP	EBX
  1552 00000F9E 5E                              	POP	ESI
  1553 00000F9F 5F                              	POP	EDI
  1554 00000FA0 5D                              	POP	EBP
  1555 00000FA1 C3                              	RET
  1556 00000FA2                                 L290:
  1557 00000FA2 6A FF                           	PUSH	-1
  1558 00000FA4 6A 00                           	PUSH	0
  1559 00000FA6 6A 07                           	PUSH	7
  1560 00000FA8 68 [00000016]                   	PUSH	LC2
  1561 00000FAD EB D3                           	JMP	L295
  1562 00000FAF                                 L296:
  1563 00000FAF 6A FF                           	PUSH	-1
  1564 00000FB1 6A 00                           	PUSH	0
  1565 00000FB3 6A 02                           	PUSH	2
  1566 00000FB5 EB AE                           	JMP	L294
  1567                                          [SECTION .data]
  1568 000000BC                                 LC23:
  1569 000000BC 70 6F 77 65 72 2D 6F 6E 20 74   	DB	"power-on time: ",0x00
       000000C6 69 6D 65 3A 20 00 
  1570                                          [SECTION .text]
  1571 00000FB7                                 	GLOBAL	_cmd_time
  1572 00000FB7                                 _cmd_time:
  1573 00000FB7 55                              	PUSH	EBP
  1574 00000FB8 89 E5                           	MOV	EBP,ESP
  1575 00000FBA 56                              	PUSH	ESI
  1576 00000FBB 53                              	PUSH	EBX
  1577 00000FBC 8B 5D 08                        	MOV	EBX,DWORD [8+EBP]
  1578 00000FBF E8 [00000000]                   	CALL	_get_ontime
  1579 00000FC4 6A FF                           	PUSH	-1
  1580 00000FC6 89 C6                           	MOV	ESI,EAX
  1581 00000FC8 68 [000000BC]                   	PUSH	LC23
  1582 00000FCD 53                              	PUSH	EBX
  1583 00000FCE E8 FFFFF8CA                     	CALL	_cons_putstring
  1584 00000FD3 6A FF                           	PUSH	-1
  1585 00000FD5 56                              	PUSH	ESI
  1586 00000FD6 53                              	PUSH	EBX
  1587 00000FD7 E8 FFFFF8C1                     	CALL	_cons_putstring
  1588 00000FDC 89 5D 08                        	MOV	DWORD [8+EBP],EBX
  1589 00000FDF 83 C4 18                        	ADD	ESP,24
  1590 00000FE2 8D 65 F8                        	LEA	ESP,DWORD [-8+EBP]
  1591 00000FE5 5B                              	POP	EBX
  1592 00000FE6 5E                              	POP	ESI
  1593 00000FE7 5D                              	POP	EBP
  1594 00000FE8 E9 FFFFF7BD                     	JMP	_cons_newline
  1595                                          [SECTION .data]
  1596 000000CC                                 LC24:
  1597 000000CC 48 61 72 69 00                  	DB	"Hari",0x00
  1598 000000D1                                 LC25:
  1599 000000D1 5B 6E 6F 74 20 61 6E 20 65 78   	DB	"[not an executable file]: ",0x00
       000000DB 65 63 75 74 61 62 6C 65 20 66 
       000000E5 69 6C 65 5D 3A 20 00 
  1600                                          [SECTION .text]
  1601 00000FED                                 	GLOBAL	_cmd_app
  1602 00000FED                                 _cmd_app:
  1603 00000FED 55                              	PUSH	EBP
  1604 00000FEE 89 E5                           	MOV	EBP,ESP
  1605 00000FF0 57                              	PUSH	EDI
  1606 00000FF1 56                              	PUSH	ESI
  1607 00000FF2 31 F6                           	XOR	ESI,ESI
  1608 00000FF4 53                              	PUSH	EBX
  1609 00000FF5 83 EC 34                        	SUB	ESP,52
  1610 00000FF8 E8 [00000000]                   	CALL	_task_now
  1611 00000FFD 89 45 C8                        	MOV	DWORD [-56+EBP],EAX
  1612 00001000                                 L304:
  1613 00001000 8B 55 10                        	MOV	EDX,DWORD [16+EBP]
  1614 00001003 8A 04 16                        	MOV	AL,BYTE [ESI+EDX*1]
  1615 00001006 3C 20                           	CMP	AL,32
  1616 00001008 7E 0A                           	JLE	L300
  1617 0000100A 88 44 35 D4                     	MOV	BYTE [-44+EBP+ESI*1],AL
  1618 0000100E 46                              	INC	ESI
  1619 0000100F 83 FE 0C                        	CMP	ESI,12
  1620 00001012 7E EC                           	JLE	L304
  1621 00001014                                 L300:
  1622 00001014 68 000000E0                     	PUSH	224
  1623 00001019 8D 5D D4                        	LEA	EBX,DWORD [-44+EBP]
  1624 0000101C 68 00102600                     	PUSH	1058304
  1625 00001021 53                              	PUSH	EBX
  1626 00001022 C6 44 35 D4 00                  	MOV	BYTE [-44+EBP+ESI*1],0
  1627 00001027 E8 [00000000]                   	CALL	_file_search
  1628 0000102C 83 C4 0C                        	ADD	ESP,12
  1629 0000102F 85 C0                           	TEST	EAX,EAX
  1630 00001031 89 45 CC                        	MOV	DWORD [-52+EBP],EAX
  1631 00001034 0F 84 000001DC                  	JE	L335
  1632 0000103A                                 L334:
  1633 0000103A 8B 45 CC                        	MOV	EAX,DWORD [-52+EBP]
  1634 0000103D FF 70 1C                        	PUSH	DWORD [28+EAX]
  1635 00001040 68 003C0000                     	PUSH	3932160
  1636 00001045 E8 [00000000]                   	CALL	_memman_alloc_4k
  1637 0000104A 8B 55 CC                        	MOV	EDX,DWORD [-52+EBP]
  1638 0000104D 68 00103E00                     	PUSH	1064448
  1639 00001052 FF 75 0C                        	PUSH	DWORD [12+EBP]
  1640 00001055 50                              	PUSH	EAX
  1641 00001056 89 45 D0                        	MOV	DWORD [-48+EBP],EAX
  1642 00001059 FF 72 1C                        	PUSH	DWORD [28+EDX]
  1643 0000105C 0F B7 42 1A                     	MOVZX	EAX,WORD [26+EDX]
  1644 00001060 50                              	PUSH	EAX
  1645 00001061 E8 [00000000]                   	CALL	_file_loadfile
  1646 00001066 8B 45 CC                        	MOV	EAX,DWORD [-52+EBP]
  1647 00001069 83 C4 1C                        	ADD	ESP,28
  1648 0000106C 83 78 1C 23                     	CMP	DWORD [28+EAX],35
  1649 00001070 76 1D                           	JBE	L307
  1650 00001072 8B 75 D0                        	MOV	ESI,DWORD [-48+EBP]
  1651 00001075 BF [000000CC]                   	MOV	EDI,LC24
  1652 0000107A FC                              	CLD
  1653 0000107B 83 C6 04                        	ADD	ESI,4
  1654 0000107E B9 00000004                     	MOV	ECX,4
  1655 00001083 F3                              	REPE
  1656 00001084 A6                              	CMPSB
  1657 00001085 75 08                           	JNE	L307
  1658 00001087 8B 55 D0                        	MOV	EDX,DWORD [-48+EBP]
  1659 0000108A 80 3A 00                        	CMP	BYTE [EDX],0
  1660 0000108D 74 4F                           	JE	L336
  1661 0000108F                                 L307:
  1662 0000108F 6A FF                           	PUSH	-1
  1663 00001091 6A 09                           	PUSH	9
  1664 00001093 6A 07                           	PUSH	7
  1665 00001095 68 [000000D1]                   	PUSH	LC25
  1666 0000109A FF 75 08                        	PUSH	DWORD [8+EBP]
  1667 0000109D E8 FFFFF7FB                     	CALL	_cons_putstring
  1668 000010A2 6A FF                           	PUSH	-1
  1669 000010A4 6A 09                           	PUSH	9
  1670 000010A6 6A 07                           	PUSH	7
  1671 000010A8 FF 75 10                        	PUSH	DWORD [16+EBP]
  1672 000010AB FF 75 08                        	PUSH	DWORD [8+EBP]
  1673 000010AE E8 FFFFF7EA                     	CALL	_cons_putstring
  1674 000010B3 83 C4 28                        	ADD	ESP,40
  1675 000010B6                                 L325:
  1676 000010B6 8B 45 CC                        	MOV	EAX,DWORD [-52+EBP]
  1677 000010B9 FF 70 1C                        	PUSH	DWORD [28+EAX]
  1678 000010BC FF 75 D0                        	PUSH	DWORD [-48+EBP]
  1679 000010BF 68 003C0000                     	PUSH	3932160
  1680 000010C4 E8 [00000000]                   	CALL	_memman_free_4k
  1681 000010C9 FF 75 08                        	PUSH	DWORD [8+EBP]
  1682 000010CC E8 FFFFF6D9                     	CALL	_cons_newline
  1683 000010D1 B8 00000001                     	MOV	EAX,1
  1684 000010D6                                 L298:
  1685 000010D6 8D 65 F4                        	LEA	ESP,DWORD [-12+EBP]
  1686 000010D9 5B                              	POP	EBX
  1687 000010DA 5E                              	POP	ESI
  1688 000010DB 5F                              	POP	EDI
  1689 000010DC 5D                              	POP	EBP
  1690 000010DD C3                              	RET
  1691 000010DE                                 L336:
  1692 000010DE 8B 02                           	MOV	EAX,DWORD [EDX]
  1693 000010E0 8B 52 0C                        	MOV	EDX,DWORD [12+EDX]
  1694 000010E3 89 45 C4                        	MOV	DWORD [-60+EBP],EAX
  1695 000010E6 89 55 C0                        	MOV	DWORD [-64+EBP],EDX
  1696 000010E9 8B 45 D0                        	MOV	EAX,DWORD [-48+EBP]
  1697 000010EC 8B 58 10                        	MOV	EBX,DWORD [16+EAX]
  1698 000010EF 8B 70 14                        	MOV	ESI,DWORD [20+EAX]
  1699 000010F2 FF 75 C4                        	PUSH	DWORD [-60+EBP]
  1700 000010F5 68 003C0000                     	PUSH	3932160
  1701 000010FA E8 [00000000]                   	CALL	_memman_alloc_4k
  1702 000010FF 8B 55 C8                        	MOV	EDX,DWORD [-56+EBP]
  1703 00001102 89 C7                           	MOV	EDI,EAX
  1704 00001104 89 82 000000A8                  	MOV	DWORD [168+EDX],EAX
  1705 0000110A 8B 55 CC                        	MOV	EDX,DWORD [-52+EBP]
  1706 0000110D 68 000040FA                     	PUSH	16634
  1707 00001112 FF 75 D0                        	PUSH	DWORD [-48+EBP]
  1708 00001115 8B 42 1C                        	MOV	EAX,DWORD [28+EDX]
  1709 00001118 48                              	DEC	EAX
  1710 00001119 50                              	PUSH	EAX
  1711 0000111A 8B 45 C8                        	MOV	EAX,DWORD [-56+EBP]
  1712 0000111D 05 00000094                     	ADD	EAX,148
  1713 00001122 50                              	PUSH	EAX
  1714 00001123 E8 [00000000]                   	CALL	_set_segmdesc
  1715 00001128 8B 45 C4                        	MOV	EAX,DWORD [-60+EBP]
  1716 0000112B 68 000040F2                     	PUSH	16626
  1717 00001130 48                              	DEC	EAX
  1718 00001131 57                              	PUSH	EDI
  1719 00001132 50                              	PUSH	EAX
  1720 00001133 8B 45 C8                        	MOV	EAX,DWORD [-56+EBP]
  1721 00001136 05 0000009C                     	ADD	EAX,156
  1722 0000113B 50                              	PUSH	EAX
  1723 0000113C E8 [00000000]                   	CALL	_set_segmdesc
  1724 00001141 83 C4 28                        	ADD	ESP,40
  1725 00001144 85 DB                           	TEST	EBX,EBX
  1726 00001146 7E 16                           	JLE	L329
  1727 00001148 8B 45 D0                        	MOV	EAX,DWORD [-48+EBP]
  1728 0000114B 8B 4D C0                        	MOV	ECX,DWORD [-64+EBP]
  1729 0000114E 01 F9                           	ADD	ECX,EDI
  1730 00001150 8D 14 30                        	LEA	EDX,DWORD [EAX+ESI*1]
  1731 00001153 89 DE                           	MOV	ESI,EBX
  1732 00001155                                 L312:
  1733 00001155 8A 02                           	MOV	AL,BYTE [EDX]
  1734 00001157 42                              	INC	EDX
  1735 00001158 88 01                           	MOV	BYTE [ECX],AL
  1736 0000115A 41                              	INC	ECX
  1737 0000115B 4E                              	DEC	ESI
  1738 0000115C 75 F7                           	JNE	L312
  1739 0000115E                                 L329:
  1740 0000115E 8B 45 C8                        	MOV	EAX,DWORD [-56+EBP]
  1741 00001161 BE 000000FF                     	MOV	ESI,255
  1742 00001166 83 C0 30                        	ADD	EAX,48
  1743 00001169 50                              	PUSH	EAX
  1744 0000116A 6A 0C                           	PUSH	12
  1745 0000116C FF 75 C0                        	PUSH	DWORD [-64+EBP]
  1746 0000116F 6A 04                           	PUSH	4
  1747 00001171 6A 1B                           	PUSH	27
  1748 00001173 E8 [00000000]                   	CALL	_start_app
  1749 00001178 8B 1D 00000FE4                  	MOV	EBX,DWORD [4068]
  1750 0000117E 83 C4 14                        	ADD	ESP,20
  1751 00001181 81 C3 00000414                  	ADD	EBX,1044
  1752 00001187                                 L318:
  1753 00001187 8B 43 1C                        	MOV	EAX,DWORD [28+EBX]
  1754 0000118A 83 E0 11                        	AND	EAX,17
  1755 0000118D 83 F8 11                        	CMP	EAX,17
  1756 00001190 74 70                           	JE	L337
  1757 00001192                                 L315:
  1758 00001192 83 C3 28                        	ADD	EBX,40
  1759 00001195 4E                              	DEC	ESI
  1760 00001196 79 EF                           	JNS	L318
  1761 00001198 31 DB                           	XOR	EBX,EBX
  1762 0000119A BE 00000007                     	MOV	ESI,7
  1763 0000119F                                 L324:
  1764 0000119F 8B 55 C8                        	MOV	EDX,DWORD [-56+EBP]
  1765 000011A2 8B 82 000000B0                  	MOV	EAX,DWORD [176+EDX]
  1766 000011A8 83 3C 18 00                     	CMP	DWORD [EAX+EBX*1],0
  1767 000011AC 75 28                           	JNE	L338
  1768 000011AE                                 L321:
  1769 000011AE 83 C3 0C                        	ADD	EBX,12
  1770 000011B1 4E                              	DEC	ESI
  1771 000011B2 79 EB                           	JNS	L324
  1772 000011B4 8B 45 C8                        	MOV	EAX,DWORD [-56+EBP]
  1773 000011B7 83 C0 10                        	ADD	EAX,16
  1774 000011BA 50                              	PUSH	EAX
  1775 000011BB E8 [00000000]                   	CALL	_timer_cancelall
  1776 000011C0 FF 75 C4                        	PUSH	DWORD [-60+EBP]
  1777 000011C3 57                              	PUSH	EDI
  1778 000011C4 68 003C0000                     	PUSH	3932160
  1779 000011C9 E8 [00000000]                   	CALL	_memman_free_4k
  1780 000011CE 83 C4 10                        	ADD	ESP,16
  1781 000011D1 E9 FFFFFEE0                     	JMP	L325
  1782 000011D6                                 L338:
  1783 000011D6 FF 74 18 04                     	PUSH	DWORD [4+EAX+EBX*1]
  1784 000011DA 8B 82 000000B0                  	MOV	EAX,DWORD [176+EDX]
  1785 000011E0 FF 34 18                        	PUSH	DWORD [EAX+EBX*1]
  1786 000011E3 68 003C0000                     	PUSH	3932160
  1787 000011E8 E8 [00000000]                   	CALL	_memman_free_4k
  1788 000011ED 83 C4 0C                        	ADD	ESP,12
  1789 000011F0 8B 55 C8                        	MOV	EDX,DWORD [-56+EBP]
  1790 000011F3 8B 82 000000B0                  	MOV	EAX,DWORD [176+EDX]
  1791 000011F9 C7 04 18 00000000               	MOV	DWORD [EAX+EBX*1],0
  1792 00001200 EB AC                           	JMP	L321
  1793 00001202                                 L337:
  1794 00001202 8B 55 C8                        	MOV	EDX,DWORD [-56+EBP]
  1795 00001205 39 53 24                        	CMP	DWORD [36+EBX],EDX
  1796 00001208 75 88                           	JNE	L315
  1797 0000120A 53                              	PUSH	EBX
  1798 0000120B E8 [00000000]                   	CALL	_sheet_free
  1799 00001210 58                              	POP	EAX
  1800 00001211 E9 FFFFFF7C                     	JMP	L315
  1801 00001216                                 L335:
  1802 00001216 80 7C 35 D3 2E                  	CMP	BYTE [-45+EBP+ESI*1],46
  1803 0000121B 74 2F                           	JE	L305
  1804 0000121D 68 000000E0                     	PUSH	224
  1805 00001222 68 00102600                     	PUSH	1058304
  1806 00001227 53                              	PUSH	EBX
  1807 00001228 C6 44 35 D4 2E                  	MOV	BYTE [-44+EBP+ESI*1],46
  1808 0000122D C6 44 35 D5 68                  	MOV	BYTE [-43+EBP+ESI*1],104
  1809 00001232 C6 44 35 D6 72                  	MOV	BYTE [-42+EBP+ESI*1],114
  1810 00001237 C6 44 35 D7 62                  	MOV	BYTE [-41+EBP+ESI*1],98
  1811 0000123C C6 44 35 D8 00                  	MOV	BYTE [-40+EBP+ESI*1],0
  1812 00001241 E8 [00000000]                   	CALL	_file_search
  1813 00001246 83 C4 0C                        	ADD	ESP,12
  1814 00001249 89 45 CC                        	MOV	DWORD [-52+EBP],EAX
  1815 0000124C                                 L305:
  1816 0000124C 83 7D CC 00                     	CMP	DWORD [-52+EBP],0
  1817 00001250 0F 85 FFFFFDE4                  	JNE	L334
  1818 00001256 31 C0                           	XOR	EAX,EAX
  1819 00001258 E9 FFFFFE79                     	JMP	L298
  1820                                          [SECTION .data]
  1821 000000EC                                 LC26:
  1822 000000EC 65 63 68 6F 20 00               	DB	"echo ",0x00
  1823 000000F2                                 LC28:
  1824 000000F2 5B 73 79 6E 74 61 78 20 65 72   	DB	"[syntax error]: ",0x0A,0x00
       000000FC 72 6F 72 5D 3A 20 0A 00 
  1825 00000104                                 LC27:
  1826 00000104 75 73 61 67 65 3A 20 65 63 68   	DB	"usage: echo ",0x22,"content",0x22,0x00
       0000010E 6F 20 22 63 6F 6E 74 65 6E 74 
       00000118 22 00 
  1827                                          [SECTION .text]
  1828 0000125D                                 	GLOBAL	_cmd_echo
  1829 0000125D                                 _cmd_echo:
  1830 0000125D 55                              	PUSH	EBP
  1831 0000125E B9 00000006                     	MOV	ECX,6
  1832 00001263 89 E5                           	MOV	EBP,ESP
  1833 00001265 57                              	PUSH	EDI
  1834 00001266 56                              	PUSH	ESI
  1835 00001267 BF [000000EC]                   	MOV	EDI,LC26
  1836 0000126C 53                              	PUSH	EBX
  1837 0000126D 83 EC 0C                        	SUB	ESP,12
  1838 00001270 8B 45 08                        	MOV	EAX,DWORD [8+EBP]
  1839 00001273 8B 5D 0C                        	MOV	EBX,DWORD [12+EBP]
  1840 00001276 FC                              	CLD
  1841 00001277 89 45 F0                        	MOV	DWORD [-16+EBP],EAX
  1842 0000127A 89 DE                           	MOV	ESI,EBX
  1843 0000127C F3                              	REPE
  1844 0000127D A6                              	CMPSB
  1845 0000127E 0F 84 000000F7                  	JE	L374
  1846 00001284 FC                              	CLD
  1847 00001285 89 DF                           	MOV	EDI,EBX
  1848 00001287 83 C9 FF                        	OR	ECX,-1
  1849 0000128A 31 C0                           	XOR	EAX,EAX
  1850 0000128C 31 F6                           	XOR	ESI,ESI
  1851 0000128E C7 45 EC 00000000               	MOV	DWORD [-20+EBP],0
  1852 00001295 C7 45 E8 00000000               	MOV	DWORD [-24+EBP],0
  1853 0000129C F2                              	REPNE
  1854 0000129D AE                              	SCASB
  1855 0000129E F7 D1                           	NOT	ECX
  1856 000012A0 49                              	DEC	ECX
  1857 000012A1 31 FF                           	XOR	EDI,EDI
  1858 000012A3 39 CE                           	CMP	ESI,ECX
  1859 000012A5 7D 14                           	JGE	L367
  1860 000012A7                                 L364:
  1861 000012A7 8A 04 1E                        	MOV	AL,BYTE [ESI+EBX*1]
  1862 000012AA 3C 22                           	CMP	AL,34
  1863 000012AC 0F 84 000000A8                  	JE	L375
  1864 000012B2                                 L345:
  1865 000012B2 3C 5C                           	CMP	AL,92
  1866 000012B4 74 5F                           	JE	L376
  1867 000012B6                                 L343:
  1868 000012B6 46                              	INC	ESI
  1869 000012B7 39 CE                           	CMP	ESI,ECX
  1870 000012B9 7C EC                           	JL	L364
  1871 000012BB                                 L367:
  1872 000012BB 83 FF 02                        	CMP	EDI,2
  1873 000012BE 74 37                           	JE	L365
  1874 000012C0 6A FF                           	PUSH	-1
  1875 000012C2 6A 09                           	PUSH	9
  1876 000012C4 6A 07                           	PUSH	7
  1877 000012C6 68 [000000F2]                   	PUSH	LC28
  1878 000012CB FF 75 F0                        	PUSH	DWORD [-16+EBP]
  1879 000012CE E8 FFFFF5CA                     	CALL	_cons_putstring
  1880 000012D3 6A FF                           	PUSH	-1
  1881 000012D5 68 [00000104]                   	PUSH	LC27
  1882 000012DA FF 75 F0                        	PUSH	DWORD [-16+EBP]
  1883 000012DD E8 FFFFF5BB                     	CALL	_cons_putstring
  1884 000012E2 8B 45 F0                        	MOV	EAX,DWORD [-16+EBP]
  1885 000012E5 83 C4 20                        	ADD	ESP,32
  1886 000012E8 89 45 08                        	MOV	DWORD [8+EBP],EAX
  1887 000012EB                                 L372:
  1888 000012EB 8D 65 F4                        	LEA	ESP,DWORD [-12+EBP]
  1889 000012EE 5B                              	POP	EBX
  1890 000012EF 5E                              	POP	ESI
  1891 000012F0 5F                              	POP	EDI
  1892 000012F1 5D                              	POP	EBP
  1893 000012F2 E9 FFFFF4B3                     	JMP	_cons_newline
  1894 000012F7                                 L365:
  1895 000012F7 FF 75 E8                        	PUSH	DWORD [-24+EBP]
  1896 000012FA FF 75 EC                        	PUSH	DWORD [-20+EBP]
  1897 000012FD 6A 00                           	PUSH	0
  1898 000012FF 6A 07                           	PUSH	7
  1899 00001301 53                              	PUSH	EBX
  1900 00001302 FF 75 F0                        	PUSH	DWORD [-16+EBP]
  1901 00001305 E8 FFFFF593                     	CALL	_cons_putstring
  1902 0000130A 83 C4 18                        	ADD	ESP,24
  1903 0000130D                                 L373:
  1904 0000130D 8B 55 F0                        	MOV	EDX,DWORD [-16+EBP]
  1905 00001310 89 55 08                        	MOV	DWORD [8+EBP],EDX
  1906 00001313 EB D6                           	JMP	L372
  1907 00001315                                 L376:
  1908 00001315 0F BE 44 1E 01                  	MOVSX	EAX,BYTE [1+ESI+EBX*1]
  1909 0000131A 83 F8 6E                        	CMP	EAX,110
  1910 0000131D 74 22                           	JE	L356
  1911 0000131F 83 F8 74                        	CMP	EAX,116
  1912 00001322 75 92                           	JNE	L343
  1913 00001324 8D 56 01                        	LEA	EDX,DWORD [1+ESI]
  1914 00001327 C6 04 1E 09                     	MOV	BYTE [ESI+EBX*1],9
  1915 0000132B 39 CA                           	CMP	EDX,ECX
  1916 0000132D 7D 0C                           	JGE	L371
  1917 0000132F                                 L355:
  1918 0000132F 8A 44 1A 01                     	MOV	AL,BYTE [1+EDX+EBX*1]
  1919 00001333 88 04 1A                        	MOV	BYTE [EDX+EBX*1],AL
  1920 00001336 42                              	INC	EDX
  1921 00001337 39 CA                           	CMP	EDX,ECX
  1922 00001339 7C F4                           	JL	L355
  1923 0000133B                                 L371:
  1924 0000133B 49                              	DEC	ECX
  1925 0000133C E9 FFFFFF75                     	JMP	L343
  1926 00001341                                 L356:
  1927 00001341 8D 56 01                        	LEA	EDX,DWORD [1+ESI]
  1928 00001344 C6 04 1E 0A                     	MOV	BYTE [ESI+EBX*1],10
  1929 00001348 39 CA                           	CMP	EDX,ECX
  1930 0000134A 7D EF                           	JGE	L371
  1931 0000134C                                 L361:
  1932 0000134C 8A 44 1A 01                     	MOV	AL,BYTE [1+EDX+EBX*1]
  1933 00001350 88 04 1A                        	MOV	BYTE [EDX+EBX*1],AL
  1934 00001353 42                              	INC	EDX
  1935 00001354 39 CA                           	CMP	EDX,ECX
  1936 00001356 7C F4                           	JL	L361
  1937 00001358 EB E1                           	JMP	L371
  1938 0000135A                                 L375:
  1939 0000135A 85 FF                           	TEST	EDI,EDI
  1940 0000135C 75 10                           	JNE	L346
  1941 0000135E 8D 56 01                        	LEA	EDX,DWORD [1+ESI]
  1942 00001361 BF 00000001                     	MOV	EDI,1
  1943 00001366 89 55 EC                        	MOV	DWORD [-20+EBP],EDX
  1944 00001369 E9 FFFFFF44                     	JMP	L345
  1945 0000136E                                 L346:
  1946 0000136E 89 75 E8                        	MOV	DWORD [-24+EBP],ESI
  1947 00001371 BF 00000002                     	MOV	EDI,2
  1948 00001376 E9 FFFFFF37                     	JMP	L345
  1949 0000137B                                 L374:
  1950 0000137B 6A FF                           	PUSH	-1
  1951 0000137D 68 [00000104]                   	PUSH	LC27
  1952 00001382 FF 75 F0                        	PUSH	DWORD [-16+EBP]
  1953 00001385 E8 FFFFF513                     	CALL	_cons_putstring
  1954 0000138A 83 C4 0C                        	ADD	ESP,12
  1955 0000138D E9 FFFFFF7B                     	JMP	L373
  1956                                          [SECTION .data]
  1957 0000011A                                 LC29:
  1958 0000011A 74 61 73 6B 5B 25 64 5D 2C 20   	DB	"task[%d], level[%02d], priority[%2d], sel[%d]",0x0A,0x00
       00000124 6C 65 76 65 6C 5B 25 30 32 64 
       0000012E 5D 2C 20 70 72 69 6F 72 69 74 
       00000138 79 5B 25 32 64 5D 2C 20 73 65 
       00000142 6C 5B 25 64 5D 0A 00 
  1959                                          [SECTION .text]
  1960 00001392                                 	GLOBAL	_cmd_top
  1961 00001392                                 _cmd_top:
  1962 00001392 55                              	PUSH	EBP
  1963 00001393 89 E5                           	MOV	EBP,ESP
  1964 00001395 57                              	PUSH	EDI
  1965 00001396 56                              	PUSH	ESI
  1966 00001397 31 FF                           	XOR	EDI,EDI
  1967 00001399 53                              	PUSH	EBX
  1968 0000139A 31 F6                           	XOR	ESI,ESI
  1969 0000139C 83 C4 80                        	ADD	ESP,-128
  1970 0000139F E8 [00000000]                   	CALL	_io_cli
  1971 000013A4                                 L383:
  1972 000013A4 8B 15 [00000000]                	MOV	EDX,DWORD [_taskctl]
  1973 000013AA 01 FA                           	ADD	EDX,EDI
  1974 000013AC 8D 82 00000FF8                  	LEA	EAX,DWORD [4088+EDX]
  1975 000013B2 83 78 04 00                     	CMP	DWORD [4+EAX],0
  1976 000013B6 75 1C                           	JNE	L386
  1977 000013B8                                 L380:
  1978 000013B8 46                              	INC	ESI
  1979 000013B9 81 C7 000000BC                  	ADD	EDI,188
  1980 000013BF 81 FE 000003E7                  	CMP	ESI,999
  1981 000013C5 7E DD                           	JLE	L383
  1982 000013C7 E8 [00000000]                   	CALL	_io_sti
  1983 000013CC 8D 65 F4                        	LEA	ESP,DWORD [-12+EBP]
  1984 000013CF 5B                              	POP	EBX
  1985 000013D0 5E                              	POP	ESI
  1986 000013D1 5F                              	POP	EDI
  1987 000013D2 5D                              	POP	EBP
  1988 000013D3 C3                              	RET
  1989 000013D4                                 L386:
  1990 000013D4 FF B2 00000FF8                  	PUSH	DWORD [4088+EDX]
  1991 000013DA FF 70 0C                        	PUSH	DWORD [12+EAX]
  1992 000013DD FF 70 08                        	PUSH	DWORD [8+EAX]
  1993 000013E0 56                              	PUSH	ESI
  1994 000013E1 8D 9D FFFFFF74                  	LEA	EBX,DWORD [-140+EBP]
  1995 000013E7 68 [0000011A]                   	PUSH	LC29
  1996 000013EC 53                              	PUSH	EBX
  1997 000013ED E8 [00000000]                   	CALL	_sprintf
  1998 000013F2 6A FF                           	PUSH	-1
  1999 000013F4 53                              	PUSH	EBX
  2000 000013F5 FF 75 08                        	PUSH	DWORD [8+EBP]
  2001 000013F8 E8 FFFFF4A0                     	CALL	_cons_putstring
  2002 000013FD 83 C4 24                        	ADD	ESP,36
  2003 00001400 EB B6                           	JMP	L380
  2004                                          [SECTION .data]
  2005 00000149                                 LC30:
  2006 00000149 5B 25 34 64 5D 20 25 73 00      	DB	"[%4d] %s",0x00
  2007                                          [SECTION .text]
  2008 00001402                                 	GLOBAL	_cmd_history
  2009 00001402                                 _cmd_history:
  2010 00001402 55                              	PUSH	EBP
  2011 00001403 89 E5                           	MOV	EBP,ESP
  2012 00001405 57                              	PUSH	EDI
  2013 00001406 56                              	PUSH	ESI
  2014 00001407 53                              	PUSH	EBX
  2015 00001408 81 EC 00000200                  	SUB	ESP,512
  2016 0000140E 8B 7D 10                        	MOV	EDI,DWORD [16+EBP]
  2017 00001411 83 7D 0C 00                     	CMP	DWORD [12+EBP],0
  2018 00001415 74 06                           	JE	L387
  2019 00001417 31 C0                           	XOR	EAX,EAX
  2020 00001419 39 F8                           	CMP	EAX,EDI
  2021 0000141B 7C 08                           	JL	L393
  2022 0000141D                                 L387:
  2023 0000141D 8D 65 F4                        	LEA	ESP,DWORD [-12+EBP]
  2024 00001420 5B                              	POP	EBX
  2025 00001421 5E                              	POP	ESI
  2026 00001422 5F                              	POP	EDI
  2027 00001423 5D                              	POP	EBP
  2028 00001424 C3                              	RET
  2029 00001425                                 L393:
  2030 00001425 8B 55 0C                        	MOV	EDX,DWORD [12+EBP]
  2031 00001428 8D 70 01                        	LEA	ESI,DWORD [1+EAX]
  2032 0000142B 8D 9D FFFFFDF4                  	LEA	EBX,DWORD [-524+EBP]
  2033 00001431 FF 34 82                        	PUSH	DWORD [EDX+EAX*4]
  2034 00001434 56                              	PUSH	ESI
  2035 00001435 68 [00000149]                   	PUSH	LC30
  2036 0000143A 53                              	PUSH	EBX
  2037 0000143B E8 [00000000]                   	CALL	_sprintf
  2038 00001440 6A FF                           	PUSH	-1
  2039 00001442 53                              	PUSH	EBX
  2040 00001443 FF 75 08                        	PUSH	DWORD [8+EBP]
  2041 00001446 E8 FFFFF452                     	CALL	_cons_putstring
  2042 0000144B FF 75 08                        	PUSH	DWORD [8+EBP]
  2043 0000144E E8 FFFFF357                     	CALL	_cons_newline
  2044 00001453 89 F0                           	MOV	EAX,ESI
  2045 00001455 83 C4 20                        	ADD	ESP,32
  2046 00001458 39 FE                           	CMP	ESI,EDI
  2047 0000145A 7C C9                           	JL	L393
  2048 0000145C EB BF                           	JMP	L387
  2049 0000145E                                 	GLOBAL	_cmd_exit
  2050 0000145E                                 _cmd_exit:
  2051 0000145E 55                              	PUSH	EBP
  2052 0000145F 89 E5                           	MOV	EBP,ESP
  2053 00001461 57                              	PUSH	EDI
  2054 00001462 56                              	PUSH	ESI
  2055 00001463 53                              	PUSH	EBX
  2056 00001464 51                              	PUSH	ECX
  2057 00001465 51                              	PUSH	ECX
  2058 00001466 8B 75 10                        	MOV	ESI,DWORD [16+EBP]
  2059 00001469 E8 [00000000]                   	CALL	_task_now
  2060 0000146E 8B 55 08                        	MOV	EDX,DWORD [8+EBP]
  2061 00001471 8B 3D 00000FEC                  	MOV	EDI,DWORD [4076]
  2062 00001477 89 45 F0                        	MOV	DWORD [-16+EBP],EAX
  2063 0000147A A1 00000FE4                     	MOV	EAX,DWORD [4068]
  2064 0000147F FF 72 1C                        	PUSH	DWORD [28+EDX]
  2065 00001482 89 45 EC                        	MOV	DWORD [-20+EBP],EAX
  2066 00001485 E8 [00000000]                   	CALL	_timer_cancel
  2067 0000148A 68 00002D00                     	PUSH	11520
  2068 0000148F FF 75 0C                        	PUSH	DWORD [12+EBP]
  2069 00001492 68 003C0000                     	PUSH	3932160
  2070 00001497 E8 [00000000]                   	CALL	_memman_free_4k
  2071 0000149C 83 C4 10                        	ADD	ESP,16
  2072 0000149F 85 F6                           	TEST	ESI,ESI
  2073 000014A1 74 33                           	JE	L396
  2074 000014A3 31 DB                           	XOR	EBX,EBX
  2075 000014A5                                 L401:
  2076 000014A5 68 00000100                     	PUSH	256
  2077 000014AA FF 34 9E                        	PUSH	DWORD [ESI+EBX*4]
  2078 000014AD 68 003C0000                     	PUSH	3932160
  2079 000014B2 43                              	INC	EBX
  2080 000014B3 E8 [00000000]                   	CALL	_memman_free
  2081 000014B8 83 C4 0C                        	ADD	ESP,12
  2082 000014BB 81 FB 000007FF                  	CMP	EBX,2047
  2083 000014C1 7E E2                           	JLE	L401
  2084 000014C3 68 00002000                     	PUSH	8192
  2085 000014C8 56                              	PUSH	ESI
  2086 000014C9 68 003C0000                     	PUSH	3932160
  2087 000014CE E8 [00000000]                   	CALL	_memman_free
  2088 000014D3 83 C4 0C                        	ADD	ESP,12
  2089 000014D6                                 L396:
  2090 000014D6 E8 [00000000]                   	CALL	_io_cli
  2091 000014DB 8B 55 08                        	MOV	EDX,DWORD [8+EBP]
  2092 000014DE 8B 02                           	MOV	EAX,DWORD [EDX]
  2093 000014E0 85 C0                           	TEST	EAX,EAX
  2094 000014E2 74 2F                           	JE	L402
  2095 000014E4 2B 45 EC                        	SUB	EAX,DWORD [-20+EBP]
  2096 000014E7 2D 00000414                     	SUB	EAX,1044
  2097 000014EC C1 F8 03                        	SAR	EAX,3
  2098 000014EF 69 C0 CCCCCCCD                  	IMUL	EAX,EAX,-858993459
  2099 000014F5 05 00000300                     	ADD	EAX,768
  2100 000014FA                                 L409:
  2101 000014FA 50                              	PUSH	EAX
  2102 000014FB 57                              	PUSH	EDI
  2103 000014FC E8 [00000000]                   	CALL	_fifo32_put
  2104 00001501 58                              	POP	EAX
  2105 00001502 5A                              	POP	EDX
  2106 00001503 E8 [00000000]                   	CALL	_io_sti
  2107 00001508                                 L404:
  2108 00001508 FF 75 F0                        	PUSH	DWORD [-16+EBP]
  2109 0000150B E8 [00000000]                   	CALL	_task_sleep
  2110 00001510 58                              	POP	EAX
  2111 00001511 EB F5                           	JMP	L404
  2112 00001513                                 L402:
  2113 00001513 8B 45 F0                        	MOV	EAX,DWORD [-16+EBP]
  2114 00001516 2B 05 [00000000]                	SUB	EAX,DWORD [_taskctl]
  2115 0000151C 2D 00000FF8                     	SUB	EAX,4088
  2116 00001521 C1 F8 02                        	SAR	EAX,2
  2117 00001524 69 C0 677D46CF                  	IMUL	EAX,EAX,1736263375
  2118 0000152A 05 00000400                     	ADD	EAX,1024
  2119 0000152F EB C9                           	JMP	L409
  2120                                          [SECTION .data]
  2121 00000152                                 LC31:
  2122 00000152 73 74 61 72 74 20 00            	DB	"start ",0x00
  2123 00000159                                 LC32:
  2124 00000159 75 73 61 67 65 3A 20 73 74 61   	DB	"usage: start execfile(.hrb)",0x00
       00000163 72 74 20 65 78 65 63 66 69 6C 
       0000016D 65 28 2E 68 72 62 29 00 
  2125                                          [SECTION .text]
  2126 00001531                                 	GLOBAL	_cmd_start
  2127 00001531                                 _cmd_start:
  2128 00001531 55                              	PUSH	EBP
  2129 00001532 B9 00000007                     	MOV	ECX,7
  2130 00001537 89 E5                           	MOV	EBP,ESP
  2131 00001539 57                              	PUSH	EDI
  2132 0000153A 56                              	PUSH	ESI
  2133 0000153B 53                              	PUSH	EBX
  2134 0000153C 83 EC 0C                        	SUB	ESP,12
  2135 0000153F 8B 45 08                        	MOV	EAX,DWORD [8+EBP]
  2136 00001542 8B 55 0C                        	MOV	EDX,DWORD [12+EBP]
  2137 00001545 89 45 E8                        	MOV	DWORD [-24+EBP],EAX
  2138 00001548 89 55 F0                        	MOV	DWORD [-16+EBP],EDX
  2139 0000154B B8 [00000152]                   	MOV	EAX,LC31
  2140 00001550 89 D6                           	MOV	ESI,EDX
  2141 00001552 FC                              	CLD
  2142 00001553 89 C7                           	MOV	EDI,EAX
  2143 00001555 8B 5D 10                        	MOV	EBX,DWORD [16+EBP]
  2144 00001558 F3                              	REPE
  2145 00001559 A6                              	CMPSB
  2146 0000155A 0F 84 00000092                  	JE	L420
  2147 00001560 8B 7D E8                        	MOV	EDI,DWORD [-24+EBP]
  2148 00001563 8B 35 00000FE4                  	MOV	ESI,DWORD [4068]
  2149 00001569 FF 77 18                        	PUSH	DWORD [24+EDI]
  2150 0000156C FF 77 14                        	PUSH	DWORD [20+EDI]
  2151 0000156F 53                              	PUSH	EBX
  2152 00001570 56                              	PUSH	ESI
  2153 00001571 E8 00000A9E                     	CALL	_open_console
  2154 00001576 8B 17                           	MOV	EDX,DWORD [EDI]
  2155 00001578 89 C3                           	MOV	EBX,EAX
  2156 0000157A 8B 40 24                        	MOV	EAX,DWORD [36+EAX]
  2157 0000157D 83 C0 10                        	ADD	EAX,16
  2158 00001580 89 45 EC                        	MOV	DWORD [-20+EBP],EAX
  2159 00001583 8B 42 10                        	MOV	EAX,DWORD [16+EDX]
  2160 00001586 83 C0 32                        	ADD	EAX,50
  2161 00001589 50                              	PUSH	EAX
  2162 0000158A 8B 42 0C                        	MOV	EAX,DWORD [12+EDX]
  2163 0000158D 83 C0 32                        	ADD	EAX,50
  2164 00001590 50                              	PUSH	EAX
  2165 00001591 53                              	PUSH	EBX
  2166 00001592 E8 [00000000]                   	CALL	_sheet_slide
  2167 00001597 FF 76 10                        	PUSH	DWORD [16+ESI]
  2168 0000159A 53                              	PUSH	EBX
  2169 0000159B BB 00000006                     	MOV	EBX,6
  2170 000015A0 E8 [00000000]                   	CALL	_sheet_updown
  2171 000015A5 8B 55 F0                        	MOV	EDX,DWORD [-16+EBP]
  2172 000015A8 83 C4 24                        	ADD	ESP,36
  2173 000015AB 80 7A 06 00                     	CMP	BYTE [6+EDX],0
  2174 000015AF 75 21                           	JNE	L416
  2175 000015B1                                 L418:
  2176 000015B1 68 0000010A                     	PUSH	266
  2177 000015B6 FF 75 EC                        	PUSH	DWORD [-20+EBP]
  2178 000015B9 E8 [00000000]                   	CALL	_fifo32_put
  2179 000015BE 8B 45 E8                        	MOV	EAX,DWORD [-24+EBP]
  2180 000015C1 5B                              	POP	EBX
  2181 000015C2 5E                              	POP	ESI
  2182 000015C3 89 45 08                        	MOV	DWORD [8+EBP],EAX
  2183 000015C6                                 L419:
  2184 000015C6 8D 65 F4                        	LEA	ESP,DWORD [-12+EBP]
  2185 000015C9 5B                              	POP	EBX
  2186 000015CA 5E                              	POP	ESI
  2187 000015CB 5F                              	POP	EDI
  2188 000015CC 5D                              	POP	EBP
  2189 000015CD E9 FFFFF1D8                     	JMP	_cons_newline
  2190 000015D2                                 L416:
  2191 000015D2 8B 7D F0                        	MOV	EDI,DWORD [-16+EBP]
  2192 000015D5 0F BE 04 3B                     	MOVSX	EAX,BYTE [EBX+EDI*1]
  2193 000015D9 05 00000100                     	ADD	EAX,256
  2194 000015DE 43                              	INC	EBX
  2195 000015DF 50                              	PUSH	EAX
  2196 000015E0 FF 75 EC                        	PUSH	DWORD [-20+EBP]
  2197 000015E3 E8 [00000000]                   	CALL	_fifo32_put
  2198 000015E8 80 3C 3B 00                     	CMP	BYTE [EBX+EDI*1],0
  2199 000015EC 58                              	POP	EAX
  2200 000015ED 5A                              	POP	EDX
  2201 000015EE 75 E2                           	JNE	L416
  2202 000015F0 EB BF                           	JMP	L418
  2203 000015F2                                 L420:
  2204 000015F2 8B 45 E8                        	MOV	EAX,DWORD [-24+EBP]
  2205 000015F5 C7 40 04 00000008               	MOV	DWORD [4+EAX],8
  2206 000015FC 6A FF                           	PUSH	-1
  2207 000015FE 68 [00000159]                   	PUSH	LC32
  2208 00001603 50                              	PUSH	EAX
  2209 00001604 E8 FFFFF294                     	CALL	_cons_putstring
  2210 00001609 8B 55 E8                        	MOV	EDX,DWORD [-24+EBP]
  2211 0000160C 83 C4 0C                        	ADD	ESP,12
  2212 0000160F 89 55 08                        	MOV	DWORD [8+EBP],EDX
  2213 00001612 EB B2                           	JMP	L419
  2214                                          [SECTION .data]
  2215 00000175                                 LC33:
  2216 00000175 6E 63 73 74 20 00               	DB	"ncst ",0x00
  2217 0000017B                                 LC34:
  2218 0000017B 75 73 61 67 65 3A 20 6E 63 73   	DB	"usage: ncst execfile(.hrb)",0x00
       00000185 74 20 65 78 65 63 66 69 6C 65 
       0000018F 28 2E 68 72 62 29 00 
  2219                                          [SECTION .text]
  2220 00001614                                 	GLOBAL	_cmd_ncst
  2221 00001614                                 _cmd_ncst:
  2222 00001614 55                              	PUSH	EBP
  2223 00001615 89 E5                           	MOV	EBP,ESP
  2224 00001617 57                              	PUSH	EDI
  2225 00001618 56                              	PUSH	ESI
  2226 00001619 BF [00000175]                   	MOV	EDI,LC33
  2227 0000161E 53                              	PUSH	EBX
  2228 0000161F 51                              	PUSH	ECX
  2229 00001620 51                              	PUSH	ECX
  2230 00001621 B9 00000006                     	MOV	ECX,6
  2231 00001626 8B 45 08                        	MOV	EAX,DWORD [8+EBP]
  2232 00001629 8B 5D 0C                        	MOV	EBX,DWORD [12+EBP]
  2233 0000162C 89 45 F0                        	MOV	DWORD [-16+EBP],EAX
  2234 0000162F 89 DE                           	MOV	ESI,EBX
  2235 00001631 8B 45 10                        	MOV	EAX,DWORD [16+EBP]
  2236 00001634 FC                              	CLD
  2237 00001635 89 45 EC                        	MOV	DWORD [-20+EBP],EAX
  2238 00001638 F3                              	REPE
  2239 00001639 A6                              	CMPSB
  2240 0000163A 74 59                           	JE	L431
  2241 0000163C 6A 00                           	PUSH	0
  2242 0000163E BE 00000005                     	MOV	ESI,5
  2243 00001643 6A 00                           	PUSH	0
  2244 00001645 FF 75 EC                        	PUSH	DWORD [-20+EBP]
  2245 00001648 6A 00                           	PUSH	0
  2246 0000164A E8 0000090D                     	CALL	_open_constask
  2247 0000164F 83 C4 10                        	ADD	ESP,16
  2248 00001652 80 7B 05 00                     	CMP	BYTE [5+EBX],0
  2249 00001656 8D 78 10                        	LEA	EDI,DWORD [16+EAX]
  2250 00001659 75 1F                           	JNE	L427
  2251 0000165B                                 L429:
  2252 0000165B 68 0000010A                     	PUSH	266
  2253 00001660 57                              	PUSH	EDI
  2254 00001661 E8 [00000000]                   	CALL	_fifo32_put
  2255 00001666 59                              	POP	ECX
  2256 00001667 5B                              	POP	EBX
  2257 00001668                                 L430:
  2258 00001668 8B 45 F0                        	MOV	EAX,DWORD [-16+EBP]
  2259 0000166B 89 45 08                        	MOV	DWORD [8+EBP],EAX
  2260 0000166E 8D 65 F4                        	LEA	ESP,DWORD [-12+EBP]
  2261 00001671 5B                              	POP	EBX
  2262 00001672 5E                              	POP	ESI
  2263 00001673 5F                              	POP	EDI
  2264 00001674 5D                              	POP	EBP
  2265 00001675 E9 FFFFF130                     	JMP	_cons_newline
  2266 0000167A                                 L427:
  2267 0000167A 0F BE 04 1E                     	MOVSX	EAX,BYTE [ESI+EBX*1]
  2268 0000167E 05 00000100                     	ADD	EAX,256
  2269 00001683 46                              	INC	ESI
  2270 00001684 50                              	PUSH	EAX
  2271 00001685 57                              	PUSH	EDI
  2272 00001686 E8 [00000000]                   	CALL	_fifo32_put
  2273 0000168B 80 3C 1E 00                     	CMP	BYTE [ESI+EBX*1],0
  2274 0000168F 58                              	POP	EAX
  2275 00001690 5A                              	POP	EDX
  2276 00001691 75 E7                           	JNE	L427
  2277 00001693 EB C6                           	JMP	L429
  2278 00001695                                 L431:
  2279 00001695 8B 45 F0                        	MOV	EAX,DWORD [-16+EBP]
  2280 00001698 C7 40 04 00000008               	MOV	DWORD [4+EAX],8
  2281 0000169F 6A FF                           	PUSH	-1
  2282 000016A1 68 [0000017B]                   	PUSH	LC34
  2283 000016A6 50                              	PUSH	EAX
  2284 000016A7 E8 FFFFF1F1                     	CALL	_cons_putstring
  2285 000016AC 83 C4 0C                        	ADD	ESP,12
  2286 000016AF EB B7                           	JMP	L430
  2287 000016B1                                 	GLOBAL	_hrb_api
  2288 000016B1                                 _hrb_api:
  2289 000016B1 55                              	PUSH	EBP
  2290 000016B2 89 E5                           	MOV	EBP,ESP
  2291 000016B4 57                              	PUSH	EDI
  2292 000016B5 56                              	PUSH	ESI
  2293 000016B6 53                              	PUSH	EBX
  2294 000016B7 81 EC 0000009C                  	SUB	ESP,156
  2295 000016BD 8B 75 1C                        	MOV	ESI,DWORD [28+EBP]
  2296 000016C0 8B 5D 10                        	MOV	EBX,DWORD [16+EBP]
  2297 000016C3 8B 7D 20                        	MOV	EDI,DWORD [32+EBP]
  2298 000016C6 E8 [00000000]                   	CALL	_task_now
  2299 000016CB 8B 0D 00000FE4                  	MOV	ECX,DWORD [4068]
  2300 000016D1 83 FE 01                        	CMP	ESI,1
  2301 000016D4 89 85 FFFFFF70                  	MOV	DWORD [-144+EBP],EAX
  2302 000016DA 89 8D FFFFFF64                  	MOV	DWORD [-156+EBP],ECX
  2303 000016E0 8B 95 FFFFFF70                  	MOV	EDX,DWORD [-144+EBP]
  2304 000016E6 8B 80 000000A8                  	MOV	EAX,DWORD [168+EAX]
  2305 000016EC 89 85 FFFFFF6C                  	MOV	DWORD [-148+EBP],EAX
  2306 000016F2 8B 92 000000A4                  	MOV	EDX,DWORD [164+EDX]
  2307 000016F8 89 95 FFFFFF68                  	MOV	DWORD [-152+EBP],EDX
  2308 000016FE 8B 02                           	MOV	EAX,DWORD [EDX]
  2309 00001700 8B 15 00000FEC                  	MOV	EDX,DWORD [4076]
  2310 00001706 89 85 FFFFFF60                  	MOV	DWORD [-160+EBP],EAX
  2311 0000170C 89 95 FFFFFF5C                  	MOV	DWORD [-164+EBP],EDX
  2312 00001712 0F 84 0000069D                  	JE	L548
  2313 00001718 83 FE 02                        	CMP	ESI,2
  2314 0000171B 0F 84 0000067A                  	JE	L549
  2315 00001721 83 FE 03                        	CMP	ESI,3
  2316 00001724 0F 84 00000656                  	JE	L550
  2317 0000172A 83 FE 04                        	CMP	ESI,4
  2318 0000172D 0F 84 0000063F                  	JE	L551
  2319 00001733 83 FE 05                        	CMP	ESI,5
  2320 00001736 0F 84 00000586                  	JE	L552
  2321 0000173C 83 FE 06                        	CMP	ESI,6
  2322 0000173F 0F 84 00000531                  	JE	L553
  2323 00001745 83 FE 07                        	CMP	ESI,7
  2324 00001748 0F 84 00000502                  	JE	L554
  2325 0000174E 83 FE 08                        	CMP	ESI,8
  2326 00001751 0F 84 000004D5                  	JE	L555
  2327 00001757 83 FE 09                        	CMP	ESI,9
  2328 0000175A 0F 84 000004AE                  	JE	L556
  2329 00001760 83 FE 0A                        	CMP	ESI,10
  2330 00001763 0F 84 00000487                  	JE	L557
  2331 00001769 83 FE 0B                        	CMP	ESI,11
  2332 0000176C 0F 84 00000447                  	JE	L558
  2333 00001772 83 FE 0C                        	CMP	ESI,12
  2334 00001775 0F 84 0000042F                  	JE	L559
  2335 0000177B 83 FE 0D                        	CMP	ESI,13
  2336 0000177E 0F 84 000003E3                  	JE	L560
  2337 00001784 83 FE 0E                        	CMP	ESI,14
  2338 00001787 0F 84 000003CD                  	JE	L561
  2339 0000178D 83 FE 0F                        	CMP	ESI,15
  2340 00001790 0F 84 000002AD                  	JE	L468
  2341 00001796 83 FE 10                        	CMP	ESI,16
  2342 00001799 0F 84 00000293                  	JE	L562
  2343 0000179F 83 FE 11                        	CMP	ESI,17
  2344 000017A2 0F 84 0000026A                  	JE	L563
  2345 000017A8 83 FE 12                        	CMP	ESI,18
  2346 000017AB 0F 84 0000024F                  	JE	L564
  2347 000017B1 83 FE 13                        	CMP	ESI,19
  2348 000017B4 0F 84 00000238                  	JE	L565
  2349 000017BA 83 FE 14                        	CMP	ESI,20
  2350 000017BD 0F 84 000001C0                  	JE	L566
  2351 000017C3 83 FE 15                        	CMP	ESI,21
  2352 000017C6 0F 84 00000115                  	JE	L567
  2353 000017CC 83 FE 16                        	CMP	ESI,22
  2354 000017CF 0F 84 000000EC                  	JE	L568
  2355 000017D5 83 FE 17                        	CMP	ESI,23
  2356 000017D8 0F 84 000000A4                  	JE	L569
  2357 000017DE 83 FE 18                        	CMP	ESI,24
  2358 000017E1 74 75                           	JE	L570
  2359 000017E3 83 FE 19                        	CMP	ESI,25
  2360 000017E6 74 44                           	JE	L571
  2361 000017E8 83 FE 1A                        	CMP	ESI,26
  2362 000017EB 74 0A                           	JE	L572
  2363 000017ED                                 L434:
  2364 000017ED 31 C0                           	XOR	EAX,EAX
  2365 000017EF                                 L432:
  2366 000017EF 8D 65 F4                        	LEA	ESP,DWORD [-12+EBP]
  2367 000017F2 5B                              	POP	EBX
  2368 000017F3 5E                              	POP	ESI
  2369 000017F4 5F                              	POP	EDI
  2370 000017F5 5D                              	POP	EBP
  2371 000017F6 C3                              	RET
  2372 000017F7                                 L572:
  2373 000017F7 31 DB                           	XOR	EBX,EBX
  2374 000017F9                                 L530:
  2375 000017F9 8B 8D FFFFFF70                  	MOV	ECX,DWORD [-144+EBP]
  2376 000017FF 8B 55 18                        	MOV	EDX,DWORD [24+EBP]
  2377 00001802 03 95 FFFFFF6C                  	ADD	EDX,DWORD [-148+EBP]
  2378 00001808 8B 81 000000B8                  	MOV	EAX,DWORD [184+ECX]
  2379 0000180E 8A 04 03                        	MOV	AL,BYTE [EBX+EAX*1]
  2380 00001811 88 04 13                        	MOV	BYTE [EBX+EDX*1],AL
  2381 00001814 8B 81 000000B8                  	MOV	EAX,DWORD [184+ECX]
  2382 0000181A 80 3C 03 00                     	CMP	BYTE [EBX+EAX*1],0
  2383 0000181E 74 07                           	JE	L531
  2384 00001820 39 FB                           	CMP	EBX,EDI
  2385 00001822 7D 03                           	JGE	L531
  2386 00001824 43                              	INC	EBX
  2387 00001825 EB D2                           	JMP	L530
  2388 00001827                                 L531:
  2389 00001827 89 5D 44                        	MOV	DWORD [68+EBP],EBX
  2390 0000182A EB C1                           	JMP	L434
  2391 0000182C                                 L571:
  2392 0000182C 31 DB                           	XOR	EBX,EBX
  2393 0000182E 8B 75 24                        	MOV	ESI,DWORD [36+EBP]
  2394 00001831 39 FB                           	CMP	EBX,EDI
  2395 00001833 7D F2                           	JGE	L531
  2396 00001835                                 L527:
  2397 00001835 8B 4E 08                        	MOV	ECX,DWORD [8+ESI]
  2398 00001838 3B 4E 04                        	CMP	ECX,DWORD [4+ESI]
  2399 0000183B 74 EA                           	JE	L531
  2400 0000183D 8B 45 18                        	MOV	EAX,DWORD [24+EBP]
  2401 00001840 8B 16                           	MOV	EDX,DWORD [ESI]
  2402 00001842 03 85 FFFFFF6C                  	ADD	EAX,DWORD [-148+EBP]
  2403 00001848 8A 14 11                        	MOV	DL,BYTE [ECX+EDX*1]
  2404 0000184B 88 14 03                        	MOV	BYTE [EBX+EAX*1],DL
  2405 0000184E 43                              	INC	EBX
  2406 0000184F FF 46 08                        	INC	DWORD [8+ESI]
  2407 00001852 39 FB                           	CMP	EBX,EDI
  2408 00001854 7C DF                           	JL	L527
  2409 00001856 EB CF                           	JMP	L531
  2410 00001858                                 L570:
  2411 00001858 8B 75 24                        	MOV	ESI,DWORD [36+EBP]
  2412 0000185B 85 FF                           	TEST	EDI,EDI
  2413 0000185D 75 08                           	JNE	L515
  2414 0000185F 8B 46 04                        	MOV	EAX,DWORD [4+ESI]
  2415 00001862                                 L539:
  2416 00001862 89 45 44                        	MOV	DWORD [68+EBP],EAX
  2417 00001865 EB 86                           	JMP	L434
  2418 00001867                                 L515:
  2419 00001867 83 FF 01                        	CMP	EDI,1
  2420 0000186A 74 11                           	JE	L573
  2421 0000186C 83 FF 02                        	CMP	EDI,2
  2422 0000186F 0F 85 FFFFFF78                  	JNE	L434
  2423 00001875 8B 46 08                        	MOV	EAX,DWORD [8+ESI]
  2424 00001878 2B 46 04                        	SUB	EAX,DWORD [4+ESI]
  2425 0000187B EB E5                           	JMP	L539
  2426 0000187D                                 L573:
  2427 0000187D 8B 46 08                        	MOV	EAX,DWORD [8+ESI]
  2428 00001880 EB E0                           	JMP	L539
  2429 00001882                                 L569:
  2430 00001882 8B 75 24                        	MOV	ESI,DWORD [36+EBP]
  2431 00001885 85 FF                           	TEST	EDI,EDI
  2432 00001887 74 28                           	JE	L538
  2433 00001889 83 FF 01                        	CMP	EDI,1
  2434 0000188C 74 2B                           	JE	L574
  2435 0000188E 83 FF 02                        	CMP	EDI,2
  2436 00001891 74 18                           	JE	L575
  2437 00001893                                 L506:
  2438 00001893 8B 46 04                        	MOV	EAX,DWORD [4+ESI]
  2439 00001896 39 46 08                        	CMP	DWORD [8+ESI],EAX
  2440 00001899 0F 8E FFFFFF4E                  	JLE	L434
  2441 0000189F C7 46 08 00000000               	MOV	DWORD [8+ESI],0
  2442 000018A6 E9 FFFFFF42                     	JMP	L434
  2443 000018AB                                 L575:
  2444 000018AB 8B 46 04                        	MOV	EAX,DWORD [4+ESI]
  2445 000018AE 01 45 18                        	ADD	DWORD [24+EBP],EAX
  2446 000018B1                                 L538:
  2447 000018B1 8B 55 18                        	MOV	EDX,DWORD [24+EBP]
  2448 000018B4 89 56 08                        	MOV	DWORD [8+ESI],EDX
  2449 000018B7 EB DA                           	JMP	L506
  2450 000018B9                                 L574:
  2451 000018B9 8B 4D 18                        	MOV	ECX,DWORD [24+EBP]
  2452 000018BC 01 4E 08                        	ADD	DWORD [8+ESI],ECX
  2453 000018BF EB D2                           	JMP	L506
  2454 000018C1                                 L568:
  2455 000018C1 8B 75 24                        	MOV	ESI,DWORD [36+EBP]
  2456 000018C4 FF 76 04                        	PUSH	DWORD [4+ESI]
  2457 000018C7 FF 36                           	PUSH	DWORD [ESI]
  2458 000018C9 68 003C0000                     	PUSH	3932160
  2459 000018CE E8 [00000000]                   	CALL	_memman_free_4k
  2460 000018D3 C7 06 00000000                  	MOV	DWORD [ESI],0
  2461 000018D9                                 L540:
  2462 000018D9 83 C4 0C                        	ADD	ESP,12
  2463 000018DC E9 FFFFFF0C                     	JMP	L434
  2464 000018E1                                 L567:
  2465 000018E1 31 DB                           	XOR	EBX,EBX
  2466 000018E3 31 C0                           	XOR	EAX,EAX
  2467 000018E5                                 L498:
  2468 000018E5 8B 8D FFFFFF70                  	MOV	ECX,DWORD [-144+EBP]
  2469 000018EB 8B 91 000000B0                  	MOV	EDX,DWORD [176+ECX]
  2470 000018F1 83 3C 02 00                     	CMP	DWORD [EDX+EAX*1],0
  2471 000018F5 74 09                           	JE	L494
  2472 000018F7 43                              	INC	EBX
  2473 000018F8 83 C0 0C                        	ADD	EAX,12
  2474 000018FB 83 FB 07                        	CMP	EBX,7
  2475 000018FE 7E E5                           	JLE	L498
  2476 00001900                                 L494:
  2477 00001900 6B C3 0C                        	IMUL	EAX,EBX,12
  2478 00001903 C7 45 44 00000000               	MOV	DWORD [68+EBP],0
  2479 0000190A 8D 34 10                        	LEA	ESI,DWORD [EAX+EDX*1]
  2480 0000190D 83 FB 07                        	CMP	EBX,7
  2481 00001910 0F 8F FFFFFED7                  	JG	L434
  2482 00001916 8B 45 18                        	MOV	EAX,DWORD [24+EBP]
  2483 00001919 68 000000E0                     	PUSH	224
  2484 0000191E 03 85 FFFFFF6C                  	ADD	EAX,DWORD [-148+EBP]
  2485 00001924 68 00102600                     	PUSH	1058304
  2486 00001929 50                              	PUSH	EAX
  2487 0000192A E8 [00000000]                   	CALL	_file_search
  2488 0000192F 83 C4 0C                        	ADD	ESP,12
  2489 00001932 89 C3                           	MOV	EBX,EAX
  2490 00001934 85 C0                           	TEST	EAX,EAX
  2491 00001936 0F 84 FFFFFEB1                  	JE	L434
  2492 0000193C 89 75 44                        	MOV	DWORD [68+EBP],ESI
  2493 0000193F FF 70 1C                        	PUSH	DWORD [28+EAX]
  2494 00001942 68 003C0000                     	PUSH	3932160
  2495 00001947 E8 [00000000]                   	CALL	_memman_alloc_4k
  2496 0000194C 89 06                           	MOV	DWORD [ESI],EAX
  2497 0000194E 8B 43 1C                        	MOV	EAX,DWORD [28+EBX]
  2498 00001951 89 46 04                        	MOV	DWORD [4+ESI],EAX
  2499 00001954 8B 85 FFFFFF70                  	MOV	EAX,DWORD [-144+EBP]
  2500 0000195A C7 46 08 00000000               	MOV	DWORD [8+ESI],0
  2501 00001961 68 00103E00                     	PUSH	1064448
  2502 00001966 FF B0 000000B4                  	PUSH	DWORD [180+EAX]
  2503 0000196C FF 36                           	PUSH	DWORD [ESI]
  2504 0000196E FF 73 1C                        	PUSH	DWORD [28+EBX]
  2505 00001971 0F B7 43 1A                     	MOVZX	EAX,WORD [26+EBX]
  2506 00001975 50                              	PUSH	EAX
  2507 00001976 E8 [00000000]                   	CALL	_file_loadfile
  2508 0000197B 83 C4 1C                        	ADD	ESP,28
  2509 0000197E E9 FFFFFE6A                     	JMP	L434
  2510 00001983                                 L566:
  2511 00001983 8B 55 24                        	MOV	EDX,DWORD [36+EBP]
  2512 00001986 85 D2                           	TEST	EDX,EDX
  2513 00001988 75 19                           	JNE	L489
  2514 0000198A 6A 61                           	PUSH	97
  2515 0000198C E8 [00000000]                   	CALL	_io_in8
  2516 00001991 89 C3                           	MOV	EBX,EAX
  2517 00001993 83 E3 0D                        	AND	EBX,13
  2518 00001996 53                              	PUSH	EBX
  2519 00001997 6A 61                           	PUSH	97
  2520 00001999 E8 [00000000]                   	CALL	_io_out8
  2521 0000199E E9 FFFFFF36                     	JMP	L540
  2522 000019A3                                 L489:
  2523 000019A3 B9 471E7B60                     	MOV	ECX,1193180000
  2524 000019A8 89 D6                           	MOV	ESI,EDX
  2525 000019AA 89 C8                           	MOV	EAX,ECX
  2526 000019AC 68 000000B6                     	PUSH	182
  2527 000019B1 99                              	CDQ
  2528 000019B2 F7 FE                           	IDIV	ESI
  2529 000019B4 6A 43                           	PUSH	67
  2530 000019B6 89 C3                           	MOV	EBX,EAX
  2531 000019B8 E8 [00000000]                   	CALL	_io_out8
  2532 000019BD 0F B6 C3                        	MOVZX	EAX,BL
  2533 000019C0 C1 FB 08                        	SAR	EBX,8
  2534 000019C3 50                              	PUSH	EAX
  2535 000019C4 6A 42                           	PUSH	66
  2536 000019C6 E8 [00000000]                   	CALL	_io_out8
  2537 000019CB 53                              	PUSH	EBX
  2538 000019CC 6A 42                           	PUSH	66
  2539 000019CE E8 [00000000]                   	CALL	_io_out8
  2540 000019D3 6A 61                           	PUSH	97
  2541 000019D5 E8 [00000000]                   	CALL	_io_in8
  2542 000019DA 89 C3                           	MOV	EBX,EAX
  2543 000019DC 83 CB 03                        	OR	EBX,3
  2544 000019DF 83 E3 0F                        	AND	EBX,15
  2545 000019E2 53                              	PUSH	EBX
  2546 000019E3 6A 61                           	PUSH	97
  2547 000019E5 E8 [00000000]                   	CALL	_io_out8
  2548 000019EA 83 C4 24                        	ADD	ESP,36
  2549 000019ED E9 FFFFFDFB                     	JMP	L434
  2550 000019F2                                 L565:
  2551 000019F2 FF 75 18                        	PUSH	DWORD [24+EBP]
  2552 000019F5 E8 [00000000]                   	CALL	_timer_free
  2553 000019FA                                 L541:
  2554 000019FA 5B                              	POP	EBX
  2555 000019FB E9 FFFFFDED                     	JMP	L434
  2556 00001A00                                 L564:
  2557 00001A00 FF 75 24                        	PUSH	DWORD [36+EBP]
  2558 00001A03 FF 75 18                        	PUSH	DWORD [24+EBP]
  2559 00001A06 E8 [00000000]                   	CALL	_timer_settime
  2560 00001A0B                                 L543:
  2561 00001A0B 5E                              	POP	ESI
  2562 00001A0C 5F                              	POP	EDI
  2563 00001A0D E9 FFFFFDDB                     	JMP	L434
  2564 00001A12                                 L563:
  2565 00001A12 8B 45 24                        	MOV	EAX,DWORD [36+EBP]
  2566 00001A15 05 00000100                     	ADD	EAX,256
  2567 00001A1A 50                              	PUSH	EAX
  2568 00001A1B 8B 85 FFFFFF70                  	MOV	EAX,DWORD [-144+EBP]
  2569 00001A21 83 C0 10                        	ADD	EAX,16
  2570 00001A24 50                              	PUSH	EAX
  2571 00001A25 FF 75 18                        	PUSH	DWORD [24+EBP]
  2572 00001A28 E8 [00000000]                   	CALL	_timer_init
  2573 00001A2D E9 FFFFFEA7                     	JMP	L540
  2574 00001A32                                 L562:
  2575 00001A32 E8 [00000000]                   	CALL	_timer_alloc
  2576 00001A37 89 45 44                        	MOV	DWORD [68+EBP],EAX
  2577 00001A3A C6 40 09 01                     	MOV	BYTE [9+EAX],1
  2578 00001A3E E9 FFFFFDAA                     	JMP	L434
  2579 00001A43                                 L468:
  2580 00001A43 E8 [00000000]                   	CALL	_io_cli
  2581 00001A48 8B 85 FFFFFF70                  	MOV	EAX,DWORD [-144+EBP]
  2582 00001A4E 83 C0 10                        	ADD	EAX,16
  2583 00001A51 50                              	PUSH	EAX
  2584 00001A52 E8 [00000000]                   	CALL	_fifo32_status
  2585 00001A57 5A                              	POP	EDX
  2586 00001A58 85 C0                           	TEST	EAX,EAX
  2587 00001A5A 75 16                           	JNE	L471
  2588 00001A5C 83 7D 24 00                     	CMP	DWORD [36+EBP],0
  2589 00001A60 0F 84 000000E3                  	JE	L472
  2590 00001A66 FF B5 FFFFFF70                  	PUSH	DWORD [-144+EBP]
  2591 00001A6C E8 [00000000]                   	CALL	_task_sleep
  2592 00001A71 58                              	POP	EAX
  2593 00001A72                                 L471:
  2594 00001A72 8B B5 FFFFFF70                  	MOV	ESI,DWORD [-144+EBP]
  2595 00001A78 83 C6 10                        	ADD	ESI,16
  2596 00001A7B 56                              	PUSH	ESI
  2597 00001A7C E8 [00000000]                   	CALL	_fifo32_get
  2598 00001A81 89 C3                           	MOV	EBX,EAX
  2599 00001A83 E8 [00000000]                   	CALL	_io_sti
  2600 00001A88 58                              	POP	EAX
  2601 00001A89 83 FB 01                        	CMP	EBX,1
  2602 00001A8C 0F 8E 00000094                  	JLE	L576
  2603 00001A92                                 L474:
  2604 00001A92 83 FB 02                        	CMP	EBX,2
  2605 00001A95 74 7D                           	JE	L577
  2606 00001A97                                 L475:
  2607 00001A97 83 FB 03                        	CMP	EBX,3
  2608 00001A9A 74 69                           	JE	L578
  2609 00001A9C                                 L476:
  2610 00001A9C 83 FB 04                        	CMP	EBX,4
  2611 00001A9F 74 14                           	JE	L579
  2612 00001AA1                                 L477:
  2613 00001AA1 8D 83 FFFFFF00                  	LEA	EAX,DWORD [-256+EBX]
  2614 00001AA7 81 FB 000000FF                  	CMP	EBX,255
  2615 00001AAD 0F 8F FFFFFDAF                  	JG	L539
  2616 00001AB3 EB 8E                           	JMP	L468
  2617 00001AB5                                 L579:
  2618 00001AB5 8B 8D FFFFFF68                  	MOV	ECX,DWORD [-152+EBP]
  2619 00001ABB FF 71 1C                        	PUSH	DWORD [28+ECX]
  2620 00001ABE E8 [00000000]                   	CALL	_timer_cancel
  2621 00001AC3 E8 [00000000]                   	CALL	_io_cli
  2622 00001AC8 8B B5 FFFFFF68                  	MOV	ESI,DWORD [-152+EBP]
  2623 00001ACE 8B 06                           	MOV	EAX,DWORD [ESI]
  2624 00001AD0 2B 85 FFFFFF64                  	SUB	EAX,DWORD [-156+EBP]
  2625 00001AD6 2D 00000414                     	SUB	EAX,1044
  2626 00001ADB C1 F8 03                        	SAR	EAX,3
  2627 00001ADE 69 C0 CCCCCCCD                  	IMUL	EAX,EAX,-858993459
  2628 00001AE4 05 000007E8                     	ADD	EAX,2024
  2629 00001AE9 50                              	PUSH	EAX
  2630 00001AEA FF B5 FFFFFF5C                  	PUSH	DWORD [-164+EBP]
  2631 00001AF0 E8 [00000000]                   	CALL	_fifo32_put
  2632 00001AF5 C7 06 00000000                  	MOV	DWORD [ESI],0
  2633 00001AFB E8 [00000000]                   	CALL	_io_sti
  2634 00001B00 83 C4 0C                        	ADD	ESP,12
  2635 00001B03 EB 9C                           	JMP	L477
  2636 00001B05                                 L578:
  2637 00001B05 8B 95 FFFFFF68                  	MOV	EDX,DWORD [-152+EBP]
  2638 00001B0B C7 42 0C FFFFFFFF               	MOV	DWORD [12+EDX],-1
  2639 00001B12 EB 88                           	JMP	L476
  2640 00001B14                                 L577:
  2641 00001B14 8B 85 FFFFFF68                  	MOV	EAX,DWORD [-152+EBP]
  2642 00001B1A C7 40 0C 00000007               	MOV	DWORD [12+EAX],7
  2643 00001B21 E9 FFFFFF71                     	JMP	L475
  2644 00001B26                                 L576:
  2645 00001B26 6A 01                           	PUSH	1
  2646 00001B28 56                              	PUSH	ESI
  2647 00001B29 8B B5 FFFFFF68                  	MOV	ESI,DWORD [-152+EBP]
  2648 00001B2F FF 76 1C                        	PUSH	DWORD [28+ESI]
  2649 00001B32 E8 [00000000]                   	CALL	_timer_init
  2650 00001B37 6A 32                           	PUSH	50
  2651 00001B39 FF 76 1C                        	PUSH	DWORD [28+ESI]
  2652 00001B3C E8 [00000000]                   	CALL	_timer_settime
  2653 00001B41 83 C4 14                        	ADD	ESP,20
  2654 00001B44 E9 FFFFFF49                     	JMP	L474
  2655 00001B49                                 L472:
  2656 00001B49 E8 [00000000]                   	CALL	_io_sti
  2657 00001B4E C7 45 44 FFFFFFFF               	MOV	DWORD [68+EBP],-1
  2658 00001B55 E9 FFFFFC93                     	JMP	L434
  2659 00001B5A                                 L561:
  2660 00001B5A FF 75 18                        	PUSH	DWORD [24+EBP]
  2661 00001B5D E8 [00000000]                   	CALL	_sheet_free
  2662 00001B62 E9 FFFFFE93                     	JMP	L541
  2663 00001B67                                 L560:
  2664 00001B67 53                              	PUSH	EBX
  2665 00001B68 8B 75 18                        	MOV	ESI,DWORD [24+EBP]
  2666 00001B6B FF 75 08                        	PUSH	DWORD [8+EBP]
  2667 00001B6E FF 75 0C                        	PUSH	DWORD [12+EBP]
  2668 00001B71 57                              	PUSH	EDI
  2669 00001B72 83 E6 FE                        	AND	ESI,-2
  2670 00001B75 FF 75 24                        	PUSH	DWORD [36+EBP]
  2671 00001B78 56                              	PUSH	ESI
  2672 00001B79 E8 00000252                     	CALL	_hrb_api_linewin
  2673 00001B7E 83 C4 18                        	ADD	ESP,24
  2674 00001B81                                 L547:
  2675 00001B81 F7 45 18 00000001               	TEST	DWORD [24+EBP],1
  2676 00001B88 0F 85 FFFFFC5F                  	JNE	L434
  2677 00001B8E 8B 45 08                        	MOV	EAX,DWORD [8+EBP]
  2678 00001B91 40                              	INC	EAX
  2679 00001B92 50                              	PUSH	EAX
  2680 00001B93 8B 45 0C                        	MOV	EAX,DWORD [12+EBP]
  2681 00001B96 40                              	INC	EAX
  2682 00001B97 50                              	PUSH	EAX
  2683 00001B98 57                              	PUSH	EDI
  2684 00001B99 FF 75 24                        	PUSH	DWORD [36+EBP]
  2685 00001B9C                                 L545:
  2686 00001B9C 56                              	PUSH	ESI
  2687 00001B9D                                 L542:
  2688 00001B9D E8 [00000000]                   	CALL	_sheet_refresh
  2689 00001BA2                                 L544:
  2690 00001BA2 83 C4 14                        	ADD	ESP,20
  2691 00001BA5 E9 FFFFFC43                     	JMP	L434
  2692 00001BAA                                 L559:
  2693 00001BAA FF 75 08                        	PUSH	DWORD [8+EBP]
  2694 00001BAD FF 75 0C                        	PUSH	DWORD [12+EBP]
  2695 00001BB0 57                              	PUSH	EDI
  2696 00001BB1 FF 75 24                        	PUSH	DWORD [36+EBP]
  2697 00001BB4 FF 75 18                        	PUSH	DWORD [24+EBP]
  2698 00001BB7 EB E4                           	JMP	L542
  2699 00001BB9                                 L558:
  2700 00001BB9 8B 75 18                        	MOV	ESI,DWORD [24+EBP]
  2701 00001BBC 8B 45 08                        	MOV	EAX,DWORD [8+EBP]
  2702 00001BBF 83 E6 FE                        	AND	ESI,-2
  2703 00001BC2 8A 55 24                        	MOV	DL,BYTE [36+EBP]
  2704 00001BC5 0F AF 46 04                     	IMUL	EAX,DWORD [4+ESI]
  2705 00001BC9 03 45 0C                        	ADD	EAX,DWORD [12+EBP]
  2706 00001BCC 8B 0E                           	MOV	ECX,DWORD [ESI]
  2707 00001BCE 88 14 08                        	MOV	BYTE [EAX+ECX*1],DL
  2708 00001BD1 F7 45 18 00000001               	TEST	DWORD [24+EBP],1
  2709 00001BD8 0F 85 FFFFFC0F                  	JNE	L434
  2710 00001BDE 8B 45 08                        	MOV	EAX,DWORD [8+EBP]
  2711 00001BE1 40                              	INC	EAX
  2712 00001BE2 50                              	PUSH	EAX
  2713 00001BE3 8B 45 0C                        	MOV	EAX,DWORD [12+EBP]
  2714 00001BE6 40                              	INC	EAX
  2715 00001BE7 50                              	PUSH	EAX
  2716 00001BE8 FF 75 08                        	PUSH	DWORD [8+EBP]
  2717 00001BEB FF 75 0C                        	PUSH	DWORD [12+EBP]
  2718 00001BEE EB AC                           	JMP	L545
  2719 00001BF0                                 L557:
  2720 00001BF0 8D 47 0F                        	LEA	EAX,DWORD [15+EDI]
  2721 00001BF3 83 E0 F0                        	AND	EAX,-16
  2722 00001BF6 50                              	PUSH	EAX
  2723 00001BF7 8B 45 18                        	MOV	EAX,DWORD [24+EBP]
  2724 00001BFA 03 85 FFFFFF6C                  	ADD	EAX,DWORD [-148+EBP]
  2725 00001C00 FF 75 24                        	PUSH	DWORD [36+EBP]
  2726 00001C03 50                              	PUSH	EAX
  2727 00001C04 E8 [00000000]                   	CALL	_memman_free
  2728 00001C09 E9 FFFFFCCB                     	JMP	L540
  2729 00001C0E                                 L556:
  2730 00001C0E 8D 47 0F                        	LEA	EAX,DWORD [15+EDI]
  2731 00001C11 83 E0 F0                        	AND	EAX,-16
  2732 00001C14 50                              	PUSH	EAX
  2733 00001C15 8B 45 18                        	MOV	EAX,DWORD [24+EBP]
  2734 00001C18 03 85 FFFFFF6C                  	ADD	EAX,DWORD [-148+EBP]
  2735 00001C1E 50                              	PUSH	EAX
  2736 00001C1F E8 [00000000]                   	CALL	_memman_alloc
  2737 00001C24 89 45 44                        	MOV	DWORD [68+EBP],EAX
  2738 00001C27 E9 FFFFFDDF                     	JMP	L543
  2739 00001C2C                                 L555:
  2740 00001C2C 8B 5D 18                        	MOV	EBX,DWORD [24+EBP]
  2741 00001C2F 83 E7 F0                        	AND	EDI,-16
  2742 00001C32 03 9D FFFFFF6C                  	ADD	EBX,DWORD [-148+EBP]
  2743 00001C38 53                              	PUSH	EBX
  2744 00001C39 E8 [00000000]                   	CALL	_memman_init
  2745 00001C3E 57                              	PUSH	EDI
  2746 00001C3F FF 75 24                        	PUSH	DWORD [36+EBP]
  2747 00001C42 53                              	PUSH	EBX
  2748 00001C43 E8 [00000000]                   	CALL	_memman_free
  2749 00001C48 83 C4 10                        	ADD	ESP,16
  2750 00001C4B E9 FFFFFB9D                     	JMP	L434
  2751 00001C50                                 L554:
  2752 00001C50 FF 75 08                        	PUSH	DWORD [8+EBP]
  2753 00001C53 FF 75 0C                        	PUSH	DWORD [12+EBP]
  2754 00001C56 57                              	PUSH	EDI
  2755 00001C57 8B 75 18                        	MOV	ESI,DWORD [24+EBP]
  2756 00001C5A FF 75 24                        	PUSH	DWORD [36+EBP]
  2757 00001C5D 83 E6 FE                        	AND	ESI,-2
  2758 00001C60 0F B6 C3                        	MOVZX	EAX,BL
  2759 00001C63 50                              	PUSH	EAX
  2760 00001C64 FF 76 04                        	PUSH	DWORD [4+ESI]
  2761 00001C67 FF 36                           	PUSH	DWORD [ESI]
  2762 00001C69 E8 [00000000]                   	CALL	_boxfill8
  2763 00001C6E 83 C4 1C                        	ADD	ESP,28
  2764 00001C71 E9 FFFFFF0B                     	JMP	L547
  2765 00001C76                                 L553:
  2766 00001C76 8B 95 FFFFFF6C                  	MOV	EDX,DWORD [-148+EBP]
  2767 00001C7C 8B 75 18                        	MOV	ESI,DWORD [24+EBP]
  2768 00001C7F 83 E6 FE                        	AND	ESI,-2
  2769 00001C82 8D 04 1A                        	LEA	EAX,DWORD [EDX+EBX*1]
  2770 00001C85 50                              	PUSH	EAX
  2771 00001C86 0F BE 45 24                     	MOVSX	EAX,BYTE [36+EBP]
  2772 00001C8A 50                              	PUSH	EAX
  2773 00001C8B FF 75 08                        	PUSH	DWORD [8+EBP]
  2774 00001C8E FF 75 0C                        	PUSH	DWORD [12+EBP]
  2775 00001C91 FF 76 04                        	PUSH	DWORD [4+ESI]
  2776 00001C94 FF 36                           	PUSH	DWORD [ESI]
  2777 00001C96 E8 [00000000]                   	CALL	_putstring8_ascii
  2778 00001C9B 83 C4 18                        	ADD	ESP,24
  2779 00001C9E F7 45 18 00000001               	TEST	DWORD [24+EBP],1
  2780 00001CA5 0F 85 FFFFFB42                  	JNE	L434
  2781 00001CAB 8B 4D 0C                        	MOV	ECX,DWORD [12+EBP]
  2782 00001CAE 8B 45 08                        	MOV	EAX,DWORD [8+EBP]
  2783 00001CB1 83 C0 10                        	ADD	EAX,16
  2784 00001CB4 50                              	PUSH	EAX
  2785 00001CB5 8D 04 F9                        	LEA	EAX,DWORD [ECX+EDI*8]
  2786 00001CB8 50                              	PUSH	EAX
  2787 00001CB9 FF 75 08                        	PUSH	DWORD [8+EBP]
  2788 00001CBC 51                              	PUSH	ECX
  2789 00001CBD E9 FFFFFEDA                     	JMP	L545
  2790 00001CC2                                 L552:
  2791 00001CC2 FF B5 FFFFFF64                  	PUSH	DWORD [-156+EBP]
  2792 00001CC8 E8 [00000000]                   	CALL	_sheet_alloc
  2793 00001CCD 8B 5D 18                        	MOV	EBX,DWORD [24+EBP]
  2794 00001CD0 8B 8D FFFFFF70                  	MOV	ECX,DWORD [-144+EBP]
  2795 00001CD6 89 C6                           	MOV	ESI,EAX
  2796 00001CD8 89 48 24                        	MOV	DWORD [36+EAX],ECX
  2797 00001CDB 03 9D FFFFFF6C                  	ADD	EBX,DWORD [-148+EBP]
  2798 00001CE1 83 48 1C 10                     	OR	DWORD [28+EAX],16
  2799 00001CE5 FF 75 24                        	PUSH	DWORD [36+EBP]
  2800 00001CE8 FF 75 08                        	PUSH	DWORD [8+EBP]
  2801 00001CEB FF 75 0C                        	PUSH	DWORD [12+EBP]
  2802 00001CEE 53                              	PUSH	EBX
  2803 00001CEF 50                              	PUSH	EAX
  2804 00001CF0 E8 [00000000]                   	CALL	_sheet_setbuf
  2805 00001CF5 8B 95 FFFFFF6C                  	MOV	EDX,DWORD [-148+EBP]
  2806 00001CFB 6A 00                           	PUSH	0
  2807 00001CFD 8D 04 3A                        	LEA	EAX,DWORD [EDX+EDI*1]
  2808 00001D00 50                              	PUSH	EAX
  2809 00001D01 FF 75 08                        	PUSH	DWORD [8+EBP]
  2810 00001D04 FF 75 0C                        	PUSH	DWORD [12+EBP]
  2811 00001D07 53                              	PUSH	EBX
  2812 00001D08 E8 [00000000]                   	CALL	_make_window8
  2813 00001D0D 8B 8D FFFFFF68                  	MOV	ECX,DWORD [-152+EBP]
  2814 00001D13 83 C4 2C                        	ADD	ESP,44
  2815 00001D16 83 39 00                        	CMP	DWORD [ECX],0
  2816 00001D19 74 51                           	JE	L442
  2817 00001D1B 8B 95 FFFFFF60                  	MOV	EDX,DWORD [-160+EBP]
  2818 00001D21 BB 00000002                     	MOV	EBX,2
  2819 00001D26 8B 8D FFFFFF60                  	MOV	ECX,DWORD [-160+EBP]
  2820 00001D2C 8B 42 08                        	MOV	EAX,DWORD [8+EDX]
  2821 00001D2F 2B 45 08                        	SUB	EAX,DWORD [8+EBP]
  2822 00001D32 99                              	CDQ
  2823 00001D33 F7 FB                           	IDIV	EBX
  2824 00001D35 03 41 10                        	ADD	EAX,DWORD [16+ECX]
  2825 00001D38 83 E0 FC                        	AND	EAX,-4
  2826 00001D3B 50                              	PUSH	EAX
  2827 00001D3C 8B 41 04                        	MOV	EAX,DWORD [4+ECX]
  2828 00001D3F 2B 45 0C                        	SUB	EAX,DWORD [12+EBP]
  2829 00001D42 99                              	CDQ
  2830 00001D43 F7 FB                           	IDIV	EBX
  2831 00001D45 03 41 0C                        	ADD	EAX,DWORD [12+ECX]
  2832 00001D48 83 E0 FC                        	AND	EAX,-4
  2833 00001D4B 50                              	PUSH	EAX
  2834 00001D4C                                 L537:
  2835 00001D4C 56                              	PUSH	ESI
  2836 00001D4D E8 [00000000]                   	CALL	_sheet_slide
  2837 00001D52 8B 85 FFFFFF64                  	MOV	EAX,DWORD [-156+EBP]
  2838 00001D58 83 C4 0C                        	ADD	ESP,12
  2839 00001D5B FF 70 10                        	PUSH	DWORD [16+EAX]
  2840 00001D5E 56                              	PUSH	ESI
  2841 00001D5F E8 [00000000]                   	CALL	_sheet_updown
  2842 00001D64 89 75 44                        	MOV	DWORD [68+EBP],ESI
  2843 00001D67 E9 FFFFFC9F                     	JMP	L543
  2844 00001D6C                                 L442:
  2845 00001D6C 6A 30                           	PUSH	48
  2846 00001D6E 6A 30                           	PUSH	48
  2847 00001D70 EB DA                           	JMP	L537
  2848 00001D72                                 L551:
  2849 00001D72 8B 85 FFFFFF70                  	MOV	EAX,DWORD [-144+EBP]
  2850 00001D78 83 C0 30                        	ADD	EAX,48
  2851 00001D7B E9 FFFFFA6F                     	JMP	L432
  2852 00001D80                                 L550:
  2853 00001D80 8B 45 18                        	MOV	EAX,DWORD [24+EBP]
  2854 00001D83 57                              	PUSH	EDI
  2855 00001D84 03 85 FFFFFF6C                  	ADD	EAX,DWORD [-148+EBP]
  2856 00001D8A 50                              	PUSH	EAX
  2857 00001D8B FF B5 FFFFFF68                  	PUSH	DWORD [-152+EBP]
  2858 00001D91 E8 FFFFEBB2                     	CALL	_cons_putstr1
  2859 00001D96 E9 FFFFFB3E                     	JMP	L540
  2860 00001D9B                                 L549:
  2861 00001D9B 8B 45 18                        	MOV	EAX,DWORD [24+EBP]
  2862 00001D9E 03 85 FFFFFF6C                  	ADD	EAX,DWORD [-148+EBP]
  2863 00001DA4 50                              	PUSH	EAX
  2864 00001DA5 FF B5 FFFFFF68                  	PUSH	DWORD [-152+EBP]
  2865 00001DAB E8 FFFFEB66                     	CALL	_cons_putstr0
  2866 00001DB0 E9 FFFFFC56                     	JMP	L543
  2867 00001DB5                                 L548:
  2868 00001DB5 6A 00                           	PUSH	0
  2869 00001DB7 6A 07                           	PUSH	7
  2870 00001DB9 6A 01                           	PUSH	1
  2871 00001DBB 0F B6 45 24                     	MOVZX	EAX,BYTE [36+EBP]
  2872 00001DBF 50                              	PUSH	EAX
  2873 00001DC0 FF B5 FFFFFF68                  	PUSH	DWORD [-152+EBP]
  2874 00001DC6 E8 FFFFEA21                     	CALL	_cons_putchar
  2875 00001DCB E9 FFFFFDD2                     	JMP	L544
  2876 00001DD0                                 	GLOBAL	_hrb_api_linewin
  2877 00001DD0                                 _hrb_api_linewin:
  2878 00001DD0 55                              	PUSH	EBP
  2879 00001DD1 89 E5                           	MOV	EBP,ESP
  2880 00001DD3 57                              	PUSH	EDI
  2881 00001DD4 56                              	PUSH	ESI
  2882 00001DD5 53                              	PUSH	EBX
  2883 00001DD6 83 EC 0C                        	SUB	ESP,12
  2884 00001DD9 8B 5D 0C                        	MOV	EBX,DWORD [12+EBP]
  2885 00001DDC 8B 45 14                        	MOV	EAX,DWORD [20+EBP]
  2886 00001DDF 89 D9                           	MOV	ECX,EBX
  2887 00001DE1 8B 55 18                        	MOV	EDX,DWORD [24+EBP]
  2888 00001DE4 C1 E1 0A                        	SAL	ECX,10
  2889 00001DE7 89 D7                           	MOV	EDI,EDX
  2890 00001DE9 89 4D F0                        	MOV	DWORD [-16+EBP],ECX
  2891 00001DEC 89 C6                           	MOV	ESI,EAX
  2892 00001DEE 8B 4D 10                        	MOV	ECX,DWORD [16+EBP]
  2893 00001DF1 2B 7D 10                        	SUB	EDI,DWORD [16+EBP]
  2894 00001DF4 C1 E1 0A                        	SAL	ECX,10
  2895 00001DF7 29 DE                           	SUB	ESI,EBX
  2896 00001DF9 89 4D EC                        	MOV	DWORD [-20+EBP],ECX
  2897 00001DFC 0F 88 000000A3                  	JS	L602
  2898 00001E02                                 L581:
  2899 00001E02 85 FF                           	TEST	EDI,EDI
  2900 00001E04 0F 88 00000094                  	JS	L603
  2901 00001E0A                                 L582:
  2902 00001E0A 39 FE                           	CMP	ESI,EDI
  2903 00001E0C 7C 62                           	JL	L583
  2904 00001E0E 8D 4E 01                        	LEA	ECX,DWORD [1+ESI]
  2905 00001E11 39 C3                           	CMP	EBX,EAX
  2906 00001E13 BE FFFFFC00                     	MOV	ESI,-1024
  2907 00001E18 7F 05                           	JG	L585
  2908 00001E1A BE 00000400                     	MOV	ESI,1024
  2909 00001E1F                                 L585:
  2910 00001E1F 39 55 10                        	CMP	DWORD [16+EBP],EDX
  2911 00001E22 7F 46                           	JG	L586
  2912 00001E24 2B 55 10                        	SUB	EDX,DWORD [16+EBP]
  2913 00001E27 42                              	INC	EDX
  2914 00001E28                                 L601:
  2915 00001E28 C1 E2 0A                        	SAL	EDX,10
  2916 00001E2B 89 D0                           	MOV	EAX,EDX
  2917 00001E2D 99                              	CDQ
  2918 00001E2E F7 F9                           	IDIV	ECX
  2919 00001E30 89 C7                           	MOV	EDI,EAX
  2920 00001E32                                 L588:
  2921 00001E32 85 C9                           	TEST	ECX,ECX
  2922 00001E34 7E 2C                           	JLE	L599
  2923 00001E36 89 CB                           	MOV	EBX,ECX
  2924 00001E38                                 L597:
  2925 00001E38 8B 55 08                        	MOV	EDX,DWORD [8+EBP]
  2926 00001E3B 8B 45 EC                        	MOV	EAX,DWORD [-20+EBP]
  2927 00001E3E C1 F8 0A                        	SAR	EAX,10
  2928 00001E41 8B 4D F0                        	MOV	ECX,DWORD [-16+EBP]
  2929 00001E44 0F AF 42 04                     	IMUL	EAX,DWORD [4+EDX]
  2930 00001E48 C1 F9 0A                        	SAR	ECX,10
  2931 00001E4B 89 4D E8                        	MOV	DWORD [-24+EBP],ECX
  2932 00001E4E 8B 0A                           	MOV	ECX,DWORD [EDX]
  2933 00001E50 03 45 E8                        	ADD	EAX,DWORD [-24+EBP]
  2934 00001E53 8A 55 1C                        	MOV	DL,BYTE [28+EBP]
  2935 00001E56 88 14 08                        	MOV	BYTE [EAX+ECX*1],DL
  2936 00001E59 01 75 F0                        	ADD	DWORD [-16+EBP],ESI
  2937 00001E5C 01 7D EC                        	ADD	DWORD [-20+EBP],EDI
  2938 00001E5F 4B                              	DEC	EBX
  2939 00001E60 75 D6                           	JNE	L597
  2940 00001E62                                 L599:
  2941 00001E62 83 C4 0C                        	ADD	ESP,12
  2942 00001E65 5B                              	POP	EBX
  2943 00001E66 5E                              	POP	ESI
  2944 00001E67 5F                              	POP	EDI
  2945 00001E68 5D                              	POP	EBP
  2946 00001E69 C3                              	RET
  2947 00001E6A                                 L586:
  2948 00001E6A 2B 55 10                        	SUB	EDX,DWORD [16+EBP]
  2949 00001E6D 4A                              	DEC	EDX
  2950 00001E6E EB B8                           	JMP	L601
  2951 00001E70                                 L583:
  2952 00001E70 8D 4F 01                        	LEA	ECX,DWORD [1+EDI]
  2953 00001E73 39 55 10                        	CMP	DWORD [16+EBP],EDX
  2954 00001E76 BF FFFFFC00                     	MOV	EDI,-1024
  2955 00001E7B 7F 05                           	JG	L590
  2956 00001E7D BF 00000400                     	MOV	EDI,1024
  2957 00001E82                                 L590:
  2958 00001E82 39 C3                           	CMP	EBX,EAX
  2959 00001E84 7F 11                           	JG	L591
  2960 00001E86 29 D8                           	SUB	EAX,EBX
  2961 00001E88 8D 50 01                        	LEA	EDX,DWORD [1+EAX]
  2962 00001E8B                                 L600:
  2963 00001E8B C1 E2 0A                        	SAL	EDX,10
  2964 00001E8E 89 D0                           	MOV	EAX,EDX
  2965 00001E90 99                              	CDQ
  2966 00001E91 F7 F9                           	IDIV	ECX
  2967 00001E93 89 C6                           	MOV	ESI,EAX
  2968 00001E95 EB 9B                           	JMP	L588
  2969 00001E97                                 L591:
  2970 00001E97 29 D8                           	SUB	EAX,EBX
  2971 00001E99 8D 50 FF                        	LEA	EDX,DWORD [-1+EAX]
  2972 00001E9C EB ED                           	JMP	L600
  2973 00001E9E                                 L603:
  2974 00001E9E F7 DF                           	NEG	EDI
  2975 00001EA0 E9 FFFFFF65                     	JMP	L582
  2976 00001EA5                                 L602:
  2977 00001EA5 F7 DE                           	NEG	ESI
  2978 00001EA7 E9 FFFFFF56                     	JMP	L581
  2979                                          [SECTION .data]
  2980 00000196                                 LC35:
  2981 00000196 5B 49 4E 54 20 30 43 5D 3A 20   	DB	"[INT 0C]: ",0x0A,"Stack Exception.",0x0A,0x00
       000001A0 0A 53 74 61 63 6B 20 45 78 63 
       000001AA 65 70 74 69 6F 6E 2E 0A 00 
  2982 000001B3                                 LC36:
  2983 000001B3 45 49 50 20 3D 20 25 30 38 58   	DB	"EIP = %08X",0x0A,0x00
       000001BD 0A 00 
  2984                                          [SECTION .text]
  2985 00001EAC                                 	GLOBAL	_inthandler0c
  2986 00001EAC                                 _inthandler0c:
  2987 00001EAC 55                              	PUSH	EBP
  2988 00001EAD 89 E5                           	MOV	EBP,ESP
  2989 00001EAF 57                              	PUSH	EDI
  2990 00001EB0 56                              	PUSH	ESI
  2991 00001EB1 53                              	PUSH	EBX
  2992 00001EB2 8D 75 D4                        	LEA	ESI,DWORD [-44+EBP]
  2993 00001EB5 83 EC 20                        	SUB	ESP,32
  2994 00001EB8 E8 [00000000]                   	CALL	_task_now
  2995 00001EBD 89 C3                           	MOV	EBX,EAX
  2996 00001EBF 8B B8 000000A4                  	MOV	EDI,DWORD [164+EAX]
  2997 00001EC5 83 C3 30                        	ADD	EBX,48
  2998 00001EC8 6A FF                           	PUSH	-1
  2999 00001ECA 6A 09                           	PUSH	9
  3000 00001ECC 6A 07                           	PUSH	7
  3001 00001ECE 68 [00000196]                   	PUSH	LC35
  3002 00001ED3 57                              	PUSH	EDI
  3003 00001ED4 E8 FFFFE9C4                     	CALL	_cons_putstring
  3004 00001ED9 8B 45 08                        	MOV	EAX,DWORD [8+EBP]
  3005 00001EDC FF 70 2C                        	PUSH	DWORD [44+EAX]
  3006 00001EDF 68 [000001B3]                   	PUSH	LC36
  3007 00001EE4 56                              	PUSH	ESI
  3008 00001EE5 E8 [00000000]                   	CALL	_sprintf
  3009 00001EEA 83 C4 20                        	ADD	ESP,32
  3010 00001EED 6A FF                           	PUSH	-1
  3011 00001EEF 6A 09                           	PUSH	9
  3012 00001EF1 6A 07                           	PUSH	7
  3013 00001EF3 56                              	PUSH	ESI
  3014 00001EF4 57                              	PUSH	EDI
  3015 00001EF5 E8 FFFFE9A3                     	CALL	_cons_putstring
  3016 00001EFA 8D 65 F4                        	LEA	ESP,DWORD [-12+EBP]
  3017 00001EFD 89 D8                           	MOV	EAX,EBX
  3018 00001EFF 5B                              	POP	EBX
  3019 00001F00 5E                              	POP	ESI
  3020 00001F01 5F                              	POP	EDI
  3021 00001F02 5D                              	POP	EBP
  3022 00001F03 C3                              	RET
  3023                                          [SECTION .data]
  3024 000001BF                                 LC37:
  3025 000001BF 5B 49 4E 54 20 30 44 5D 3A 20   	DB	"[INT 0D]: ",0x0A,"General Protected Exception.",0x0A,0x00
       000001C9 0A 47 65 6E 65 72 61 6C 20 50 
       000001D3 72 6F 74 65 63 74 65 64 20 45 
       000001DD 78 63 65 70 74 69 6F 6E 2E 0A 
       000001E7 00 
  3026                                          [SECTION .text]
  3027 00001F04                                 	GLOBAL	_inthandler0d
  3028 00001F04                                 _inthandler0d:
  3029 00001F04 55                              	PUSH	EBP
  3030 00001F05 89 E5                           	MOV	EBP,ESP
  3031 00001F07 57                              	PUSH	EDI
  3032 00001F08 56                              	PUSH	ESI
  3033 00001F09 53                              	PUSH	EBX
  3034 00001F0A 8D 75 D4                        	LEA	ESI,DWORD [-44+EBP]
  3035 00001F0D 83 EC 20                        	SUB	ESP,32
  3036 00001F10 E8 [00000000]                   	CALL	_task_now
  3037 00001F15 89 C3                           	MOV	EBX,EAX
  3038 00001F17 8B B8 000000A4                  	MOV	EDI,DWORD [164+EAX]
  3039 00001F1D 83 C3 30                        	ADD	EBX,48
  3040 00001F20 6A FF                           	PUSH	-1
  3041 00001F22 6A 09                           	PUSH	9
  3042 00001F24 6A 07                           	PUSH	7
  3043 00001F26 68 [000001BF]                   	PUSH	LC37
  3044 00001F2B 57                              	PUSH	EDI
  3045 00001F2C E8 FFFFE96C                     	CALL	_cons_putstring
  3046 00001F31 8B 45 08                        	MOV	EAX,DWORD [8+EBP]
  3047 00001F34 FF 70 2C                        	PUSH	DWORD [44+EAX]
  3048 00001F37 68 [000001B3]                   	PUSH	LC36
  3049 00001F3C 56                              	PUSH	ESI
  3050 00001F3D E8 [00000000]                   	CALL	_sprintf
  3051 00001F42 83 C4 20                        	ADD	ESP,32
  3052 00001F45 6A FF                           	PUSH	-1
  3053 00001F47 6A 09                           	PUSH	9
  3054 00001F49 6A 07                           	PUSH	7
  3055 00001F4B 56                              	PUSH	ESI
  3056 00001F4C 57                              	PUSH	EDI
  3057 00001F4D E8 FFFFE94B                     	CALL	_cons_putstring
  3058 00001F52 8D 65 F4                        	LEA	ESP,DWORD [-12+EBP]
  3059 00001F55 89 D8                           	MOV	EAX,EBX
  3060 00001F57 5B                              	POP	EBX
  3061 00001F58 5E                              	POP	ESI
  3062 00001F59 5F                              	POP	EDI
  3063 00001F5A 5D                              	POP	EBP
  3064 00001F5B C3                              	RET
  3065 00001F5C                                 	GLOBAL	_open_constask
  3066 00001F5C                                 _open_constask:
  3067 00001F5C 55                              	PUSH	EBP
  3068 00001F5D 89 E5                           	MOV	EBP,ESP
  3069 00001F5F 56                              	PUSH	ESI
  3070 00001F60 53                              	PUSH	EBX
  3071 00001F61 E8 [00000000]                   	CALL	_task_alloc
  3072 00001F66 68 00000200                     	PUSH	512
  3073 00001F6B 68 003C0000                     	PUSH	3932160
  3074 00001F70 89 C3                           	MOV	EBX,EAX
  3075 00001F72 E8 [00000000]                   	CALL	_memman_alloc_4k
  3076 00001F77 68 00010000                     	PUSH	65536
  3077 00001F7C 68 003C0000                     	PUSH	3932160
  3078 00001F81 89 C6                           	MOV	ESI,EAX
  3079 00001F83 E8 [00000000]                   	CALL	_memman_alloc_4k
  3080 00001F88 8B 55 08                        	MOV	EDX,DWORD [8+EBP]
  3081 00001F8B C7 43 4C [00000000]             	MOV	DWORD [76+EBX],_console_task
  3082 00001F92 89 83 000000AC                  	MOV	DWORD [172+EBX],EAX
  3083 00001F98 05 0000FFEC                     	ADD	EAX,65516
  3084 00001F9D 89 43 64                        	MOV	DWORD [100+EBX],EAX
  3085 00001FA0 C7 43 74 00000008               	MOV	DWORD [116+EBX],8
  3086 00001FA7 C7 43 78 00000010               	MOV	DWORD [120+EBX],16
  3087 00001FAE C7 43 7C 00000008               	MOV	DWORD [124+EBX],8
  3088 00001FB5 C7 83 00000080 00000008         	MOV	DWORD [128+EBX],8
  3089 00001FBF C7 83 00000084 00000008         	MOV	DWORD [132+EBX],8
  3090 00001FC9 C7 83 00000088 00000008         	MOV	DWORD [136+EBX],8
  3091 00001FD3 89 50 04                        	MOV	DWORD [4+EAX],EDX
  3092 00001FD6 8B 53 64                        	MOV	EDX,DWORD [100+EBX]
  3093 00001FD9 8B 45 0C                        	MOV	EAX,DWORD [12+EBP]
  3094 00001FDC 89 42 08                        	MOV	DWORD [8+EDX],EAX
  3095 00001FDF 8B 53 64                        	MOV	EDX,DWORD [100+EBX]
  3096 00001FE2 8B 45 10                        	MOV	EAX,DWORD [16+EBP]
  3097 00001FE5 89 42 0C                        	MOV	DWORD [12+EDX],EAX
  3098 00001FE8 8B 53 64                        	MOV	EDX,DWORD [100+EBX]
  3099 00001FEB 8B 45 14                        	MOV	EAX,DWORD [20+EBP]
  3100 00001FEE 89 42 10                        	MOV	DWORD [16+EDX],EAX
  3101 00001FF1 6A 02                           	PUSH	2
  3102 00001FF3 6A 02                           	PUSH	2
  3103 00001FF5 53                              	PUSH	EBX
  3104 00001FF6 E8 [00000000]                   	CALL	_task_run
  3105 00001FFB 8D 43 10                        	LEA	EAX,DWORD [16+EBX]
  3106 00001FFE 53                              	PUSH	EBX
  3107 00001FFF 56                              	PUSH	ESI
  3108 00002000 68 00000080                     	PUSH	128
  3109 00002005 50                              	PUSH	EAX
  3110 00002006 E8 [00000000]                   	CALL	_fifo32_init
  3111 0000200B 8D 65 F8                        	LEA	ESP,DWORD [-8+EBP]
  3112 0000200E 89 D8                           	MOV	EAX,EBX
  3113 00002010 5B                              	POP	EBX
  3114 00002011 5E                              	POP	ESI
  3115 00002012 5D                              	POP	EBP
  3116 00002013 C3                              	RET
  3117                                          [SECTION .data]
  3118 000001E8                                 LC38:
  3119 000001E8 63 6F 6E 73 6F 6C 65 00         	DB	"console",0x00
  3120                                          [SECTION .text]
  3121 00002014                                 	GLOBAL	_open_console
  3122 00002014                                 _open_console:
  3123 00002014 55                              	PUSH	EBP
  3124 00002015 89 E5                           	MOV	EBP,ESP
  3125 00002017 57                              	PUSH	EDI
  3126 00002018 56                              	PUSH	ESI
  3127 00002019 53                              	PUSH	EBX
  3128 0000201A 51                              	PUSH	ECX
  3129 0000201B FF 75 08                        	PUSH	DWORD [8+EBP]
  3130 0000201E E8 [00000000]                   	CALL	_sheet_alloc
  3131 00002023 8B 75 14                        	MOV	ESI,DWORD [20+EBP]
  3132 00002026 89 C3                           	MOV	EBX,EAX
  3133 00002028 83 C6 25                        	ADD	ESI,37
  3134 0000202B 8B 45 10                        	MOV	EAX,DWORD [16+EBP]
  3135 0000202E 83 C0 10                        	ADD	EAX,16
  3136 00002031 89 45 F0                        	MOV	DWORD [-16+EBP],EAX
  3137 00002034 0F AF C6                        	IMUL	EAX,ESI
  3138 00002037 50                              	PUSH	EAX
  3139 00002038 68 003C0000                     	PUSH	3932160
  3140 0000203D E8 [00000000]                   	CALL	_memman_alloc_4k
  3141 00002042 6A FF                           	PUSH	-1
  3142 00002044 56                              	PUSH	ESI
  3143 00002045 89 C7                           	MOV	EDI,EAX
  3144 00002047 FF 75 F0                        	PUSH	DWORD [-16+EBP]
  3145 0000204A 50                              	PUSH	EAX
  3146 0000204B 53                              	PUSH	EBX
  3147 0000204C E8 [00000000]                   	CALL	_sheet_setbuf
  3148 00002051 83 C4 20                        	ADD	ESP,32
  3149 00002054 6A 00                           	PUSH	0
  3150 00002056 68 [000001E8]                   	PUSH	LC38
  3151 0000205B 56                              	PUSH	ESI
  3152 0000205C FF 75 F0                        	PUSH	DWORD [-16+EBP]
  3153 0000205F 57                              	PUSH	EDI
  3154 00002060 E8 [00000000]                   	CALL	_make_window8
  3155 00002065 6A 00                           	PUSH	0
  3156 00002067 FF 75 14                        	PUSH	DWORD [20+EBP]
  3157 0000206A FF 75 10                        	PUSH	DWORD [16+EBP]
  3158 0000206D 6A 1C                           	PUSH	28
  3159 0000206F 6A 08                           	PUSH	8
  3160 00002071 53                              	PUSH	EBX
  3161 00002072 E8 [00000000]                   	CALL	_make_textbox8
  3162 00002077 83 C4 2C                        	ADD	ESP,44
  3163 0000207A FF 75 14                        	PUSH	DWORD [20+EBP]
  3164 0000207D FF 75 10                        	PUSH	DWORD [16+EBP]
  3165 00002080 FF 75 0C                        	PUSH	DWORD [12+EBP]
  3166 00002083 53                              	PUSH	EBX
  3167 00002084 E8 FFFFFED3                     	CALL	_open_constask
  3168 00002089 83 4B 1C 20                     	OR	DWORD [28+EBX],32
  3169 0000208D 89 43 24                        	MOV	DWORD [36+EBX],EAX
  3170 00002090 8D 65 F4                        	LEA	ESP,DWORD [-12+EBP]
  3171 00002093 89 D8                           	MOV	EAX,EBX
  3172 00002095 5B                              	POP	EBX
  3173 00002096 5E                              	POP	ESI
  3174 00002097 5F                              	POP	EDI
  3175 00002098 5D                              	POP	EBP
  3176 00002099 C3                              	RET
  3177 0000209A                                 	GLOBAL	_close_cons_stack
  3178 0000209A                                 _close_cons_stack:
  3179 0000209A 55                              	PUSH	EBP
  3180 0000209B 89 E5                           	MOV	EBP,ESP
  3181 0000209D 53                              	PUSH	EBX
  3182 0000209E 8B 5D 08                        	MOV	EBX,DWORD [8+EBP]
  3183 000020A1 53                              	PUSH	EBX
  3184 000020A2 E8 [00000000]                   	CALL	_task_sleep
  3185 000020A7 68 00010000                     	PUSH	65536
  3186 000020AC FF B3 000000AC                  	PUSH	DWORD [172+EBX]
  3187 000020B2 68 003C0000                     	PUSH	3932160
  3188 000020B7 E8 [00000000]                   	CALL	_memman_free_4k
  3189 000020BC 68 00000200                     	PUSH	512
  3190 000020C1 FF 73 10                        	PUSH	DWORD [16+EBX]
  3191 000020C4 68 003C0000                     	PUSH	3932160
  3192 000020C9 E8 [00000000]                   	CALL	_memman_free_4k
  3193 000020CE C7 43 04 00000000               	MOV	DWORD [4+EBX],0
  3194 000020D5 8B 5D FC                        	MOV	EBX,DWORD [-4+EBP]
  3195 000020D8 C9                              	LEAVE
  3196 000020D9 C3                              	RET
  3197 000020DA                                 	GLOBAL	_close_console
  3198 000020DA                                 _close_console:
  3199 000020DA 55                              	PUSH	EBP
  3200 000020DB 89 E5                           	MOV	EBP,ESP
  3201 000020DD 56                              	PUSH	ESI
  3202 000020DE 53                              	PUSH	EBX
  3203 000020DF 8B 5D 08                        	MOV	EBX,DWORD [8+EBP]
  3204 000020E2 8B 43 08                        	MOV	EAX,DWORD [8+EBX]
  3205 000020E5 8B 73 24                        	MOV	ESI,DWORD [36+EBX]
  3206 000020E8 0F AF 43 04                     	IMUL	EAX,DWORD [4+EBX]
  3207 000020EC 50                              	PUSH	EAX
  3208 000020ED FF 33                           	PUSH	DWORD [EBX]
  3209 000020EF 68 003C0000                     	PUSH	3932160
  3210 000020F4 E8 [00000000]                   	CALL	_memman_free_4k
  3211 000020F9 53                              	PUSH	EBX
  3212 000020FA E8 [00000000]                   	CALL	_sheet_free
  3213 000020FF 89 75 08                        	MOV	DWORD [8+EBP],ESI
  3214 00002102 83 C4 10                        	ADD	ESP,16
  3215 00002105 8D 65 F8                        	LEA	ESP,DWORD [-8+EBP]
  3216 00002108 5B                              	POP	EBX
  3217 00002109 5E                              	POP	ESI
  3218 0000210A 5D                              	POP	EBP
  3219 0000210B EB 8D                           	JMP	_close_cons_stack
  3220                                          [SECTION .data]
  3221 000001F0                                 	ALIGNB	16
  3222 000001F0                                 _trimmed.0:
  3223 000001F0 00 00 00 00 00 00 00 00 00 00   	RESB	256
       000001FA 00 00 00 00 00 00 00 00 00 00 
       00000204 00 00 00 00 00 00 00 00 00 00 
       0000020E 00 00 00 00 00 00 00 00 00 00 
       00000218 00 00 00 00 00 00 00 00 00 00 
       00000222 00 00 00 00 00 00 00 00 00 00 
       0000022C 00 00 00 00 00 00 00 00 00 00 
       00000236 00 00 00 00 00 00 00 00 00 00 
       00000240 00 00 00 00 00 00 00 00 00 00 
       0000024A 00 00 00 00 00 00 00 00 00 00 
       00000254 00 00 00 00 00 00 00 00 00 00 
       0000025E 00 00 00 00 00 00 00 00 00 00 
       00000268 00 00 00 00 00 00 00 00 00 00 
       00000272 00 00 00 00 00 00 00 00 00 00 
       0000027C 00 00 00 00 00 00 00 00 00 00 
       00000286 00 00 00 00 00 00 00 00 00 00 
       00000290 00 00 00 00 00 00 00 00 00 00 
       0000029A 00 00 00 00 00 00 00 00 00 00 
       000002A4 00 00 00 00 00 00 00 00 00 00 
       000002AE 00 00 00 00 00 00 00 00 00 00 
       000002B8 00 00 00 00 00 00 00 00 00 00 
       000002C2 00 00 00 00 00 00 00 00 00 00 
       000002CC 00 00 00 00 00 00 00 00 00 00 
       000002D6 00 00 00 00 00 00 00 00 00 00 
       000002E0 00 00 00 00 00 00 00 00 00 00 
       000002EA 00 00 00 00 00 00 
  3224                                          [SECTION .text]
  3225 0000210D                                 	GLOBAL	_trim_cmdline_space
  3226 0000210D                                 _trim_cmdline_space:
  3227 0000210D 55                              	PUSH	EBP
  3228 0000210E 83 C9 FF                        	OR	ECX,-1
  3229 00002111 89 E5                           	MOV	EBP,ESP
  3230 00002113 31 C0                           	XOR	EAX,EAX
  3231 00002115 57                              	PUSH	EDI
  3232 00002116 31 D2                           	XOR	EDX,EDX
  3233 00002118 56                              	PUSH	ESI
  3234 00002119 8B 75 08                        	MOV	ESI,DWORD [8+EBP]
  3235 0000211C FC                              	CLD
  3236 0000211D 53                              	PUSH	EBX
  3237 0000211E 89 F7                           	MOV	EDI,ESI
  3238 00002120 F2                              	REPNE
  3239 00002121 AE                              	SCASB
  3240 00002122 F7 D1                           	NOT	ECX
  3241 00002124 31 DB                           	XOR	EBX,EBX
  3242 00002126 49                              	DEC	ECX
  3243 00002127 80 3E 20                        	CMP	BYTE [ESI],32
  3244 0000212A 74 41                           	JE	L614
  3245 0000212C                                 L625:
  3246 0000212C 39 CA                           	CMP	EDX,ECX
  3247 0000212E 7D 0F                           	JGE	L627
  3248 00002130                                 L618:
  3249 00002130 8A 04 32                        	MOV	AL,BYTE [EDX+ESI*1]
  3250 00002133 42                              	INC	EDX
  3251 00002134 88 83 [000001F0]                	MOV	BYTE [_trimmed.0+EBX],AL
  3252 0000213A 43                              	INC	EBX
  3253 0000213B 39 CA                           	CMP	EDX,ECX
  3254 0000213D 7C F1                           	JL	L618
  3255 0000213F                                 L627:
  3256 0000213F 85 DB                           	TEST	EBX,EBX
  3257 00002141 7E 09                           	JLE	L620
  3258 00002143 80 BB [000001EF] 20             	CMP	BYTE [_trimmed.0-1+EBX],32
  3259 0000214A 74 11                           	JE	L623
  3260 0000214C                                 L620:
  3261 0000214C C6 83 [000001F0] 00             	MOV	BYTE [_trimmed.0+EBX],0
  3262 00002153 5B                              	POP	EBX
  3263 00002154 B8 [000001F0]                   	MOV	EAX,_trimmed.0
  3264 00002159 5E                              	POP	ESI
  3265 0000215A 5F                              	POP	EDI
  3266 0000215B 5D                              	POP	EBP
  3267 0000215C C3                              	RET
  3268 0000215D                                 L623:
  3269 0000215D 4B                              	DEC	EBX
  3270 0000215E 85 DB                           	TEST	EBX,EBX
  3271 00002160 7E EA                           	JLE	L620
  3272 00002162 80 BB [000001EF] 20             	CMP	BYTE [_trimmed.0-1+EBX],32
  3273 00002169 74 F2                           	JE	L623
  3274 0000216B EB DF                           	JMP	L620
  3275 0000216D                                 L614:
  3276 0000216D 42                              	INC	EDX
  3277 0000216E 80 3C 32 20                     	CMP	BYTE [EDX+ESI*1],32
  3278 00002172 74 F9                           	JE	L614
  3279 00002174 EB B6                           	JMP	L625
  3280                                          [SECTION .data]
  3281 000002F0                                 	ALIGNB	16
  3282 000002F0                                 _trimmed.1:
  3283 000002F0 00 00 00 00 00 00 00 00 00 00   	RESB	256
       000002FA 00 00 00 00 00 00 00 00 00 00 
       00000304 00 00 00 00 00 00 00 00 00 00 
       0000030E 00 00 00 00 00 00 00 00 00 00 
       00000318 00 00 00 00 00 00 00 00 00 00 
       00000322 00 00 00 00 00 00 00 00 00 00 
       0000032C 00 00 00 00 00 00 00 00 00 00 
       00000336 00 00 00 00 00 00 00 00 00 00 
       00000340 00 00 00 00 00 00 00 00 00 00 
       0000034A 00 00 00 00 00 00 00 00 00 00 
       00000354 00 00 00 00 00 00 00 00 00 00 
       0000035E 00 00 00 00 00 00 00 00 00 00 
       00000368 00 00 00 00 00 00 00 00 00 00 
       00000372 00 00 00 00 00 00 00 00 00 00 
       0000037C 00 00 00 00 00 00 00 00 00 00 
       00000386 00 00 00 00 00 00 00 00 00 00 
       00000390 00 00 00 00 00 00 00 00 00 00 
       0000039A 00 00 00 00 00 00 00 00 00 00 
       000003A4 00 00 00 00 00 00 00 00 00 00 
       000003AE 00 00 00 00 00 00 00 00 00 00 
       000003B8 00 00 00 00 00 00 00 00 00 00 
       000003C2 00 00 00 00 00 00 00 00 00 00 
       000003CC 00 00 00 00 00 00 00 00 00 00 
       000003D6 00 00 00 00 00 00 00 00 00 00 
       000003E0 00 00 00 00 00 00 00 00 00 00 
       000003EA 00 00 00 00 00 00 
  3284                                          [SECTION .text]
  3285 00002176                                 	GLOBAL	_remove_cmdline_middle_space
  3286 00002176                                 _remove_cmdline_middle_space:
  3287 00002176 55                              	PUSH	EBP
  3288 00002177 83 CA FF                        	OR	EDX,-1
  3289 0000217A 89 E5                           	MOV	EBP,ESP
  3290 0000217C 31 C0                           	XOR	EAX,EAX
  3291 0000217E 57                              	PUSH	EDI
  3292 0000217F 89 D1                           	MOV	ECX,EDX
  3293 00002181 56                              	PUSH	ESI
  3294 00002182 53                              	PUSH	EBX
  3295 00002183 31 DB                           	XOR	EBX,EBX
  3296 00002185 56                              	PUSH	ESI
  3297 00002186 31 F6                           	XOR	ESI,ESI
  3298 00002188 FC                              	CLD
  3299 00002189 8B 7D 08                        	MOV	EDI,DWORD [8+EBP]
  3300 0000218C F2                              	REPNE
  3301 0000218D AE                              	SCASB
  3302 0000218E F7 D1                           	NOT	ECX
  3303 00002190 49                              	DEC	ECX
  3304 00002191 8B 7D 0C                        	MOV	EDI,DWORD [12+EBP]
  3305 00002194 89 4D F0                        	MOV	DWORD [-16+EBP],ECX
  3306 00002197 89 D1                           	MOV	ECX,EDX
  3307 00002199 F2                              	REPNE
  3308 0000219A AE                              	SCASB
  3309 0000219B F7 D1                           	NOT	ECX
  3310 0000219D 8D 51 FF                        	LEA	EDX,DWORD [-1+ECX]
  3311 000021A0 39 D6                           	CMP	ESI,EDX
  3312 000021A2 7D 12                           	JGE	L645
  3313 000021A4                                 L633:
  3314 000021A4 8B 4D 08                        	MOV	ECX,DWORD [8+EBP]
  3315 000021A7 8A 04 0B                        	MOV	AL,BYTE [EBX+ECX*1]
  3316 000021AA 43                              	INC	EBX
  3317 000021AB 88 86 [000002F0]                	MOV	BYTE [_trimmed.1+ESI],AL
  3318 000021B1 46                              	INC	ESI
  3319 000021B2 39 D3                           	CMP	EBX,EDX
  3320 000021B4 7C EE                           	JL	L633
  3321 000021B6                                 L645:
  3322 000021B6 3B 5D F0                        	CMP	EBX,DWORD [-16+EBP]
  3323 000021B9 7D 09                           	JGE	L635
  3324 000021BB 8B 45 08                        	MOV	EAX,DWORD [8+EBP]
  3325 000021BE 80 3C 03 20                     	CMP	BYTE [EBX+EAX*1],32
  3326 000021C2 74 41                           	JE	L638
  3327 000021C4                                 L635:
  3328 000021C4 C6 86 [000002F0] 20             	MOV	BYTE [_trimmed.1+ESI],32
  3329 000021CB 46                              	INC	ESI
  3330 000021CC 3B 5D F0                        	CMP	EBX,DWORD [-16+EBP]
  3331 000021CF 7D 22                           	JGE	L640
  3332 000021D1 8B 4D 08                        	MOV	ECX,DWORD [8+EBP]
  3333 000021D4 80 3C 0B 20                     	CMP	BYTE [EBX+ECX*1],32
  3334 000021D8 74 19                           	JE	L640
  3335 000021DA                                 L643:
  3336 000021DA 8B 55 08                        	MOV	EDX,DWORD [8+EBP]
  3337 000021DD 8A 04 13                        	MOV	AL,BYTE [EBX+EDX*1]
  3338 000021E0 43                              	INC	EBX
  3339 000021E1 88 86 [000002F0]                	MOV	BYTE [_trimmed.1+ESI],AL
  3340 000021E7 46                              	INC	ESI
  3341 000021E8 3B 5D F0                        	CMP	EBX,DWORD [-16+EBP]
  3342 000021EB 7D 06                           	JGE	L640
  3343 000021ED 80 3C 13 20                     	CMP	BYTE [EBX+EDX*1],32
  3344 000021F1 75 E7                           	JNE	L643
  3345 000021F3                                 L640:
  3346 000021F3 C6 86 [000002F0] 00             	MOV	BYTE [_trimmed.1+ESI],0
  3347 000021FA 5B                              	POP	EBX
  3348 000021FB B8 [000002F0]                   	MOV	EAX,_trimmed.1
  3349 00002200 5B                              	POP	EBX
  3350 00002201 5E                              	POP	ESI
  3351 00002202 5F                              	POP	EDI
  3352 00002203 5D                              	POP	EBP
  3353 00002204 C3                              	RET
  3354 00002205                                 L638:
  3355 00002205 43                              	INC	EBX
  3356 00002206 3B 5D F0                        	CMP	EBX,DWORD [-16+EBP]
  3357 00002209 7D B9                           	JGE	L635
  3358 0000220B 8B 55 08                        	MOV	EDX,DWORD [8+EBP]
  3359 0000220E 80 3C 13 20                     	CMP	BYTE [EBX+EDX*1],32
  3360 00002212 74 F1                           	JE	L638
  3361 00002214 EB AE                           	JMP	L635
